ARM GAS  /var/folders/1c/r153ml_17wn3q6lsykf2p9y00000gn/T//ccFaxmsz.s 			page 1


   1              		.cpu cortex-m7
   2              		.arch armv7e-m
   3              		.fpu fpv5-d16
   4              		.eabi_attribute 28, 1
   5              		.eabi_attribute 20, 1
   6              		.eabi_attribute 21, 1
   7              		.eabi_attribute 23, 3
   8              		.eabi_attribute 24, 1
   9              		.eabi_attribute 25, 1
  10              		.eabi_attribute 26, 1
  11              		.eabi_attribute 30, 2
  12              		.eabi_attribute 34, 1
  13              		.eabi_attribute 18, 4
  14              		.file	"reverbsc.cpp"
  15              		.text
  16              	.Ltext0:
  17              		.cfi_sections	.debug_frame
  18              		.file 1 "../DaisySP/DaisySP-LGPL/Source/Effects/reverbsc.cpp"
  19              		.section	.text._ZN7daisysp8ReverbSc17NextRandomLinesegEPNS_10ReverbScDlEi,"ax",%progbits
  20              		.align	1
  21              		.p2align 2,,3
  22              		.global	_ZN7daisysp8ReverbSc17NextRandomLinesegEPNS_10ReverbScDlEi
  23              		.syntax unified
  24              		.thumb
  25              		.thumb_func
  27              	_ZN7daisysp8ReverbSc17NextRandomLinesegEPNS_10ReverbScDlEi:
  28              	.LVL0:
  29              	.LFB560:
   1:../DaisySP/DaisySP-LGPL/Source/Effects/reverbsc.cpp **** #include <math.h>
   2:../DaisySP/DaisySP-LGPL/Source/Effects/reverbsc.cpp **** #include <stdlib.h>
   3:../DaisySP/DaisySP-LGPL/Source/Effects/reverbsc.cpp **** #include <stdint.h>
   4:../DaisySP/DaisySP-LGPL/Source/Effects/reverbsc.cpp **** #include <string.h>
   5:../DaisySP/DaisySP-LGPL/Source/Effects/reverbsc.cpp **** #include "reverbsc.h"
   6:../DaisySP/DaisySP-LGPL/Source/Effects/reverbsc.cpp **** 
   7:../DaisySP/DaisySP-LGPL/Source/Effects/reverbsc.cpp **** #define REVSC_OK 0
   8:../DaisySP/DaisySP-LGPL/Source/Effects/reverbsc.cpp **** #define REVSC_NOT_OK 1
   9:../DaisySP/DaisySP-LGPL/Source/Effects/reverbsc.cpp **** 
  10:../DaisySP/DaisySP-LGPL/Source/Effects/reverbsc.cpp **** #define DEFAULT_SRATE 48000.0
  11:../DaisySP/DaisySP-LGPL/Source/Effects/reverbsc.cpp **** #define MIN_SRATE 5000.0
  12:../DaisySP/DaisySP-LGPL/Source/Effects/reverbsc.cpp **** #define MAX_SRATE 1000000.0
  13:../DaisySP/DaisySP-LGPL/Source/Effects/reverbsc.cpp **** #define MAX_PITCHMOD 20.0
  14:../DaisySP/DaisySP-LGPL/Source/Effects/reverbsc.cpp **** #define DELAYPOS_SHIFT 28
  15:../DaisySP/DaisySP-LGPL/Source/Effects/reverbsc.cpp **** #define DELAYPOS_SCALE 0x10000000
  16:../DaisySP/DaisySP-LGPL/Source/Effects/reverbsc.cpp **** #define DELAYPOS_MASK 0x0FFFFFFF
  17:../DaisySP/DaisySP-LGPL/Source/Effects/reverbsc.cpp **** 
  18:../DaisySP/DaisySP-LGPL/Source/Effects/reverbsc.cpp **** #ifndef M_PI
  19:../DaisySP/DaisySP-LGPL/Source/Effects/reverbsc.cpp **** #define M_PI 3.14159265358979323846 /* pi */
  20:../DaisySP/DaisySP-LGPL/Source/Effects/reverbsc.cpp **** #endif
  21:../DaisySP/DaisySP-LGPL/Source/Effects/reverbsc.cpp **** 
  22:../DaisySP/DaisySP-LGPL/Source/Effects/reverbsc.cpp **** using namespace daisysp;
  23:../DaisySP/DaisySP-LGPL/Source/Effects/reverbsc.cpp **** 
  24:../DaisySP/DaisySP-LGPL/Source/Effects/reverbsc.cpp **** /* kReverbParams[n][0] = delay time (in seconds)                     */
  25:../DaisySP/DaisySP-LGPL/Source/Effects/reverbsc.cpp **** /* kReverbParams[n][1] = random variation in delay time (in seconds) */
  26:../DaisySP/DaisySP-LGPL/Source/Effects/reverbsc.cpp **** /* kReverbParams[n][2] = random variation frequency (in 1/sec)       */
  27:../DaisySP/DaisySP-LGPL/Source/Effects/reverbsc.cpp **** /* kReverbParams[n][3] = random seed (0 - 32767)                     */
  28:../DaisySP/DaisySP-LGPL/Source/Effects/reverbsc.cpp **** 
  29:../DaisySP/DaisySP-LGPL/Source/Effects/reverbsc.cpp **** static const float kReverbParams[8][4]
ARM GAS  /var/folders/1c/r153ml_17wn3q6lsykf2p9y00000gn/T//ccFaxmsz.s 			page 2


  30:../DaisySP/DaisySP-LGPL/Source/Effects/reverbsc.cpp ****     = {{(2473.0 / DEFAULT_SRATE), 0.0010, 3.100, 1966.0},
  31:../DaisySP/DaisySP-LGPL/Source/Effects/reverbsc.cpp ****        {(2767.0 / DEFAULT_SRATE), 0.0011, 3.500, 29491.0},
  32:../DaisySP/DaisySP-LGPL/Source/Effects/reverbsc.cpp ****        {(3217.0 / DEFAULT_SRATE), 0.0017, 1.110, 22937.0},
  33:../DaisySP/DaisySP-LGPL/Source/Effects/reverbsc.cpp ****        {(3557.0 / DEFAULT_SRATE), 0.0006, 3.973, 9830.0},
  34:../DaisySP/DaisySP-LGPL/Source/Effects/reverbsc.cpp ****        {(3907.0 / DEFAULT_SRATE), 0.0010, 2.341, 20643.0},
  35:../DaisySP/DaisySP-LGPL/Source/Effects/reverbsc.cpp ****        {(4127.0 / DEFAULT_SRATE), 0.0011, 1.897, 22937.0},
  36:../DaisySP/DaisySP-LGPL/Source/Effects/reverbsc.cpp ****        {(2143.0 / DEFAULT_SRATE), 0.0017, 0.891, 29491.0},
  37:../DaisySP/DaisySP-LGPL/Source/Effects/reverbsc.cpp ****        {(1933.0 / DEFAULT_SRATE), 0.0006, 3.221, 14417.0}};
  38:../DaisySP/DaisySP-LGPL/Source/Effects/reverbsc.cpp **** 
  39:../DaisySP/DaisySP-LGPL/Source/Effects/reverbsc.cpp **** static int DelayLineMaxSamples(float sr, float i_pitch_mod, int n);
  40:../DaisySP/DaisySP-LGPL/Source/Effects/reverbsc.cpp **** //static int InitDelayLine(dsy_reverbsc_dl *lp, int n);
  41:../DaisySP/DaisySP-LGPL/Source/Effects/reverbsc.cpp **** static int         DelayLineBytesAlloc(float sr, float i_pitch_mod, int n);
  42:../DaisySP/DaisySP-LGPL/Source/Effects/reverbsc.cpp **** static const float kOutputGain = 0.35;
  43:../DaisySP/DaisySP-LGPL/Source/Effects/reverbsc.cpp **** static const float kJpScale    = 0.25;
  44:../DaisySP/DaisySP-LGPL/Source/Effects/reverbsc.cpp **** 
  45:../DaisySP/DaisySP-LGPL/Source/Effects/reverbsc.cpp **** int ReverbSc::Init(float sr)
  46:../DaisySP/DaisySP-LGPL/Source/Effects/reverbsc.cpp **** {
  47:../DaisySP/DaisySP-LGPL/Source/Effects/reverbsc.cpp ****     i_sample_rate_ = sr;
  48:../DaisySP/DaisySP-LGPL/Source/Effects/reverbsc.cpp ****     sample_rate_   = sr;
  49:../DaisySP/DaisySP-LGPL/Source/Effects/reverbsc.cpp ****     feedback_      = 0.97;
  50:../DaisySP/DaisySP-LGPL/Source/Effects/reverbsc.cpp ****     lpfreq_        = 10000;
  51:../DaisySP/DaisySP-LGPL/Source/Effects/reverbsc.cpp ****     i_pitch_mod_   = 1;
  52:../DaisySP/DaisySP-LGPL/Source/Effects/reverbsc.cpp ****     i_skip_init_   = 0;
  53:../DaisySP/DaisySP-LGPL/Source/Effects/reverbsc.cpp ****     damp_fact_     = 1.0;
  54:../DaisySP/DaisySP-LGPL/Source/Effects/reverbsc.cpp ****     prv_lpfreq_    = 0.0;
  55:../DaisySP/DaisySP-LGPL/Source/Effects/reverbsc.cpp ****     init_done_     = 1;
  56:../DaisySP/DaisySP-LGPL/Source/Effects/reverbsc.cpp ****     int i, n_bytes = 0;
  57:../DaisySP/DaisySP-LGPL/Source/Effects/reverbsc.cpp ****     n_bytes = 0;
  58:../DaisySP/DaisySP-LGPL/Source/Effects/reverbsc.cpp ****     for(i = 0; i < 8; i++)
  59:../DaisySP/DaisySP-LGPL/Source/Effects/reverbsc.cpp ****     {
  60:../DaisySP/DaisySP-LGPL/Source/Effects/reverbsc.cpp ****         if(n_bytes > DSY_REVERBSC_MAX_SIZE)
  61:../DaisySP/DaisySP-LGPL/Source/Effects/reverbsc.cpp ****             return 1;
  62:../DaisySP/DaisySP-LGPL/Source/Effects/reverbsc.cpp ****         delay_lines_[i].buf = (aux_) + n_bytes;
  63:../DaisySP/DaisySP-LGPL/Source/Effects/reverbsc.cpp ****         InitDelayLine(&delay_lines_[i], i);
  64:../DaisySP/DaisySP-LGPL/Source/Effects/reverbsc.cpp ****         n_bytes += DelayLineBytesAlloc(sr, 1, i);
  65:../DaisySP/DaisySP-LGPL/Source/Effects/reverbsc.cpp ****     }
  66:../DaisySP/DaisySP-LGPL/Source/Effects/reverbsc.cpp ****     return 0;
  67:../DaisySP/DaisySP-LGPL/Source/Effects/reverbsc.cpp **** }
  68:../DaisySP/DaisySP-LGPL/Source/Effects/reverbsc.cpp **** 
  69:../DaisySP/DaisySP-LGPL/Source/Effects/reverbsc.cpp **** static int DelayLineMaxSamples(float sr, float i_pitch_mod, int n)
  70:../DaisySP/DaisySP-LGPL/Source/Effects/reverbsc.cpp **** {
  71:../DaisySP/DaisySP-LGPL/Source/Effects/reverbsc.cpp ****     float max_del;
  72:../DaisySP/DaisySP-LGPL/Source/Effects/reverbsc.cpp **** 
  73:../DaisySP/DaisySP-LGPL/Source/Effects/reverbsc.cpp ****     max_del = kReverbParams[n][0];
  74:../DaisySP/DaisySP-LGPL/Source/Effects/reverbsc.cpp ****     max_del += (kReverbParams[n][1] * (float)i_pitch_mod * 1.125);
  75:../DaisySP/DaisySP-LGPL/Source/Effects/reverbsc.cpp ****     return (int)(max_del * sr + 16.5);
  76:../DaisySP/DaisySP-LGPL/Source/Effects/reverbsc.cpp **** }
  77:../DaisySP/DaisySP-LGPL/Source/Effects/reverbsc.cpp **** 
  78:../DaisySP/DaisySP-LGPL/Source/Effects/reverbsc.cpp **** static int DelayLineBytesAlloc(float sr, float i_pitch_mod, int n)
  79:../DaisySP/DaisySP-LGPL/Source/Effects/reverbsc.cpp **** {
  80:../DaisySP/DaisySP-LGPL/Source/Effects/reverbsc.cpp ****     int n_bytes = 0;
  81:../DaisySP/DaisySP-LGPL/Source/Effects/reverbsc.cpp **** 
  82:../DaisySP/DaisySP-LGPL/Source/Effects/reverbsc.cpp ****     n_bytes += (DelayLineMaxSamples(sr, i_pitch_mod, n) * (int)sizeof(float));
  83:../DaisySP/DaisySP-LGPL/Source/Effects/reverbsc.cpp ****     return n_bytes;
  84:../DaisySP/DaisySP-LGPL/Source/Effects/reverbsc.cpp **** }
  85:../DaisySP/DaisySP-LGPL/Source/Effects/reverbsc.cpp **** 
  86:../DaisySP/DaisySP-LGPL/Source/Effects/reverbsc.cpp **** void ReverbSc::NextRandomLineseg(ReverbScDl *lp, int n)
ARM GAS  /var/folders/1c/r153ml_17wn3q6lsykf2p9y00000gn/T//ccFaxmsz.s 			page 3


  87:../DaisySP/DaisySP-LGPL/Source/Effects/reverbsc.cpp **** {
  30              		.loc 1 87 1 view -0
  31              		.cfi_startproc
  32              		@ args = 0, pretend = 0, frame = 0
  33              		@ frame_needed = 0, uses_anonymous_args = 0
  34              		@ link register save eliminated.
  88:../DaisySP/DaisySP-LGPL/Source/Effects/reverbsc.cpp ****     float prv_del, nxt_del, phs_inc_val;
  35              		.loc 1 88 5 view .LVU1
  89:../DaisySP/DaisySP-LGPL/Source/Effects/reverbsc.cpp **** 
  90:../DaisySP/DaisySP-LGPL/Source/Effects/reverbsc.cpp ****     /* update random seed */
  91:../DaisySP/DaisySP-LGPL/Source/Effects/reverbsc.cpp ****     if(lp->seed_val < 0)
  36              		.loc 1 91 5 view .LVU2
  37              		.loc 1 91 12 is_stmt 0 view .LVU3
  38 0000 8B69     		ldr	r3, [r1, #24]
  92:../DaisySP/DaisySP-LGPL/Source/Effects/reverbsc.cpp ****         lp->seed_val += 0x10000;
  93:../DaisySP/DaisySP-LGPL/Source/Effects/reverbsc.cpp ****     lp->seed_val = (lp->seed_val * 15625 + 1) & 0xFFFF;
  39              		.loc 1 93 34 view .LVU4
  40 0002 43F6095C 		movw	ip, #15625
  94:../DaisySP/DaisySP-LGPL/Source/Effects/reverbsc.cpp ****     if(lp->seed_val >= 0x8000)
  95:../DaisySP/DaisySP-LGPL/Source/Effects/reverbsc.cpp ****         lp->seed_val -= 0x10000;
  96:../DaisySP/DaisySP-LGPL/Source/Effects/reverbsc.cpp ****     /* length of next segment in samples */
  97:../DaisySP/DaisySP-LGPL/Source/Effects/reverbsc.cpp ****     lp->rand_line_cnt = (int)((sample_rate_ / kReverbParams[n][2]) + 0.5);
  41              		.loc 1 97 32 view .LVU5
  42 0006 D0ED055A 		vldr.32	s11, [r0, #20]
  43              		.loc 1 97 68 view .LVU6
  44 000a B6EE004B 		vmov.f64	d4, #5.0e-1
  91:../DaisySP/DaisySP-LGPL/Source/Effects/reverbsc.cpp ****         lp->seed_val += 0x10000;
  45              		.loc 1 91 5 view .LVU7
  46 000e 002B     		cmp	r3, #0
  92:../DaisySP/DaisySP-LGPL/Source/Effects/reverbsc.cpp ****         lp->seed_val += 0x10000;
  47              		.loc 1 92 9 is_stmt 1 view .LVU8
  93:../DaisySP/DaisySP-LGPL/Source/Effects/reverbsc.cpp ****     if(lp->seed_val >= 0x8000)
  48              		.loc 1 93 5 view .LVU9
  98:../DaisySP/DaisySP-LGPL/Source/Effects/reverbsc.cpp ****     prv_del           = (float)lp->write_pos;
  99:../DaisySP/DaisySP-LGPL/Source/Effects/reverbsc.cpp ****     prv_del -= ((float)lp->read_pos
 100:../DaisySP/DaisySP-LGPL/Source/Effects/reverbsc.cpp ****                 + ((float)lp->read_pos_frac / (float)DELAYPOS_SCALE));
  49              		.loc 1 100 20 is_stmt 0 view .LVU10
  50 0010 91ED037A 		vldr.32	s14, [r1, #12]	@ int
  99:../DaisySP/DaisySP-LGPL/Source/Effects/reverbsc.cpp ****                 + ((float)lp->read_pos_frac / (float)DELAYPOS_SCALE));
  51              		.loc 1 99 13 view .LVU11
  52 0014 9FED355A 		vldr.32	s10, .L13
  92:../DaisySP/DaisySP-LGPL/Source/Effects/reverbsc.cpp ****     lp->seed_val = (lp->seed_val * 15625 + 1) & 0xFFFF;
  53              		.loc 1 92 22 view .LVU12
  54 0018 B8BF     		it	lt
  55 001a 03F58033 		addlt	r3, r3, #65536
  56              		.loc 1 100 20 view .LVU13
  57 001e F8EEC76A 		vcvt.f32.s32	s13, s14
  99:../DaisySP/DaisySP-LGPL/Source/Effects/reverbsc.cpp ****                 + ((float)lp->read_pos_frac / (float)DELAYPOS_SCALE));
  58              		.loc 1 99 17 view .LVU14
  59 0022 91ED027A 		vldr.32	s14, [r1, #8]	@ int
  93:../DaisySP/DaisySP-LGPL/Source/Effects/reverbsc.cpp ****     if(lp->seed_val >= 0x8000)
  60              		.loc 1 93 34 view .LVU15
  61 0026 0CFB03F3 		mul	r3, ip, r3
  99:../DaisySP/DaisySP-LGPL/Source/Effects/reverbsc.cpp ****                 + ((float)lp->read_pos_frac / (float)DELAYPOS_SCALE));
  62              		.loc 1 99 17 view .LVU16
  63 002a B8EEC77A 		vcvt.f32.s32	s14, s14
  93:../DaisySP/DaisySP-LGPL/Source/Effects/reverbsc.cpp ****     if(lp->seed_val >= 0x8000)
ARM GAS  /var/folders/1c/r153ml_17wn3q6lsykf2p9y00000gn/T//ccFaxmsz.s 			page 4


  64              		.loc 1 93 42 view .LVU17
  65 002e 0133     		adds	r3, r3, #1
  93:../DaisySP/DaisySP-LGPL/Source/Effects/reverbsc.cpp ****     if(lp->seed_val >= 0x8000)
  66              		.loc 1 93 47 view .LVU18
  67 0030 1FFA83FC 		uxth	ip, r3
  94:../DaisySP/DaisySP-LGPL/Source/Effects/reverbsc.cpp ****         lp->seed_val -= 0x10000;
  68              		.loc 1 94 5 is_stmt 1 view .LVU19
  69 0034 1B04     		lsls	r3, r3, #16
  95:../DaisySP/DaisySP-LGPL/Source/Effects/reverbsc.cpp ****     /* length of next segment in samples */
  70              		.loc 1 95 9 view .LVU20
  97:../DaisySP/DaisySP-LGPL/Source/Effects/reverbsc.cpp ****     prv_del           = (float)lp->write_pos;
  71              		.loc 1 97 65 is_stmt 0 view .LVU21
  72 0036 2E4B     		ldr	r3, .L13+4
  99:../DaisySP/DaisySP-LGPL/Source/Effects/reverbsc.cpp ****                 + ((float)lp->read_pos_frac / (float)DELAYPOS_SCALE));
  73              		.loc 1 99 13 view .LVU22
  74 0038 A6EE857A 		vfma.f32	s14, s13, s10
  95:../DaisySP/DaisySP-LGPL/Source/Effects/reverbsc.cpp ****     /* length of next segment in samples */
  75              		.loc 1 95 22 view .LVU23
  76 003c 48BF     		it	mi
  77 003e ACF5803C 		submi	ip, ip, #65536
  93:../DaisySP/DaisySP-LGPL/Source/Effects/reverbsc.cpp ****     if(lp->seed_val >= 0x8000)
  78              		.loc 1 93 18 view .LVU24
  79 0042 C1F818C0 		str	ip, [r1, #24]
  97:../DaisySP/DaisySP-LGPL/Source/Effects/reverbsc.cpp ****     prv_del           = (float)lp->write_pos;
  80              		.loc 1 97 5 is_stmt 1 view .LVU25
  97:../DaisySP/DaisySP-LGPL/Source/Effects/reverbsc.cpp ****     prv_del           = (float)lp->write_pos;
  81              		.loc 1 97 65 is_stmt 0 view .LVU26
  82 0046 03EB021C 		add	ip, r3, r2, lsl #4
  97:../DaisySP/DaisySP-LGPL/Source/Effects/reverbsc.cpp ****     prv_del           = (float)lp->write_pos;
  83              		.loc 1 97 45 view .LVU27
  84 004a DCED027A 		vldr.32	s15, [ip, #8]
  85 004e 85EEA76A 		vdiv.f32	s12, s11, s15
  98:../DaisySP/DaisySP-LGPL/Source/Effects/reverbsc.cpp ****     prv_del -= ((float)lp->read_pos
  86              		.loc 1 98 23 view .LVU28
  87 0052 D1ED007A 		vldr.32	s15, [r1]	@ int
  88 0056 F8EEE77A 		vcvt.f32.s32	s15, s15
  99:../DaisySP/DaisySP-LGPL/Source/Effects/reverbsc.cpp ****                 + ((float)lp->read_pos_frac / (float)DELAYPOS_SCALE));
  89              		.loc 1 99 13 view .LVU29
  90 005a 77EEC77A 		vsub.f32	s15, s15, s14
 101:../DaisySP/DaisySP-LGPL/Source/Effects/reverbsc.cpp ****     while(prv_del < 0.0)
  91              		.loc 1 101 19 view .LVU30
  92 005e F5EEC07A 		vcmpe.f32	s15, #0
  93 0062 F1EE10FA 		vmrs	APSR_nzcv, FPSCR
  97:../DaisySP/DaisySP-LGPL/Source/Effects/reverbsc.cpp ****     prv_del           = (float)lp->write_pos;
  94              		.loc 1 97 45 view .LVU31
  95 0066 B7EEC66A 		vcvt.f64.f32	d6, s12
  97:../DaisySP/DaisySP-LGPL/Source/Effects/reverbsc.cpp ****     prv_del           = (float)lp->write_pos;
  96              		.loc 1 97 68 view .LVU32
  97 006a 36EE046B 		vadd.f64	d6, d6, d4
  97:../DaisySP/DaisySP-LGPL/Source/Effects/reverbsc.cpp ****     prv_del           = (float)lp->write_pos;
  98              		.loc 1 97 25 view .LVU33
  99 006e BDEEC66B 		vcvt.s32.f64	s12, d6
  97:../DaisySP/DaisySP-LGPL/Source/Effects/reverbsc.cpp ****     prv_del           = (float)lp->write_pos;
 100              		.loc 1 97 23 view .LVU34
 101 0072 81ED076A 		vstr.32	s12, [r1, #28]	@ int
  98:../DaisySP/DaisySP-LGPL/Source/Effects/reverbsc.cpp ****     prv_del -= ((float)lp->read_pos
 102              		.loc 1 98 5 is_stmt 1 view .LVU35
ARM GAS  /var/folders/1c/r153ml_17wn3q6lsykf2p9y00000gn/T//ccFaxmsz.s 			page 5


 103              	.LVL1:
  99:../DaisySP/DaisySP-LGPL/Source/Effects/reverbsc.cpp ****                 + ((float)lp->read_pos_frac / (float)DELAYPOS_SCALE));
 104              		.loc 1 99 5 view .LVU36
 105              		.loc 1 101 5 view .LVU37
 106              		.loc 1 101 19 view .LVU38
 107 0076 0AD5     		bpl	.L4
 102:../DaisySP/DaisySP-LGPL/Source/Effects/reverbsc.cpp ****         prv_del += lp->buffer_size;
 108              		.loc 1 102 17 is_stmt 0 view .LVU39
 109 0078 91ED017A 		vldr.32	s14, [r1, #4]	@ int
 110 007c B8EEC77A 		vcvt.f32.s32	s14, s14
 111              	.L6:
 112              		.loc 1 102 9 is_stmt 1 view .LVU40
 113              		.loc 1 102 17 is_stmt 0 view .LVU41
 114 0080 77EE877A 		vadd.f32	s15, s15, s14
 115              	.LVL2:
 101:../DaisySP/DaisySP-LGPL/Source/Effects/reverbsc.cpp ****         prv_del += lp->buffer_size;
 116              		.loc 1 101 19 is_stmt 1 view .LVU42
 117 0084 F5EEC07A 		vcmpe.f32	s15, #0
 118 0088 F1EE10FA 		vmrs	APSR_nzcv, FPSCR
 119 008c F8D4     		bmi	.L6
 120              	.L4:
 103:../DaisySP/DaisySP-LGPL/Source/Effects/reverbsc.cpp ****     prv_del = prv_del / sample_rate_; /* previous delay time in seconds */
 121              		.loc 1 103 5 view .LVU43
 122              		.loc 1 103 13 is_stmt 0 view .LVU44
 123 008e C7EEA56A 		vdiv.f32	s13, s15, s11
 124              	.LVL3:
 104:../DaisySP/DaisySP-LGPL/Source/Effects/reverbsc.cpp ****     nxt_del = (float)lp->seed_val * kReverbParams[n][1] / 32768.0;
 125              		.loc 1 104 5 is_stmt 1 view .LVU45
 126              		.loc 1 104 15 is_stmt 0 view .LVU46
 127 0092 D1ED067A 		vldr.32	s15, [r1, #24]	@ int
 128              		.loc 1 104 55 view .LVU47
 129 0096 03EB0213 		add	r3, r3, r2, lsl #4
 130              		.loc 1 104 13 view .LVU48
 131 009a DFED162A 		vldr.32	s5, .L13+8
 105:../DaisySP/DaisySP-LGPL/Source/Effects/reverbsc.cpp ****     /* next delay time in seconds */
 106:../DaisySP/DaisySP-LGPL/Source/Effects/reverbsc.cpp ****     nxt_del = kReverbParams[n][0] + (nxt_del * (float)i_pitch_mod_);
 107:../DaisySP/DaisySP-LGPL/Source/Effects/reverbsc.cpp ****     /* calculate phase increment per sample */
 108:../DaisySP/DaisySP-LGPL/Source/Effects/reverbsc.cpp ****     phs_inc_val           = (prv_del - nxt_del) / (float)lp->rand_line_cnt;
 132              		.loc 1 108 38 view .LVU49
 133 009e 90ED033A 		vldr.32	s6, [r0, #12]
 104:../DaisySP/DaisySP-LGPL/Source/Effects/reverbsc.cpp ****     nxt_del = (float)lp->seed_val * kReverbParams[n][1] / 32768.0;
 134              		.loc 1 104 35 view .LVU50
 135 00a2 D3ED014A 		vldr.32	s9, [r3, #4]
 136              		.loc 1 108 38 view .LVU51
 137 00a6 93ED005A 		vldr.32	s10, [r3]
 104:../DaisySP/DaisySP-LGPL/Source/Effects/reverbsc.cpp ****     nxt_del = (float)lp->seed_val * kReverbParams[n][1] / 32768.0;
 138              		.loc 1 104 15 view .LVU52
 139 00aa F8EEE77A 		vcvt.f32.s32	s15, s15
 109:../DaisySP/DaisySP-LGPL/Source/Effects/reverbsc.cpp ****     phs_inc_val           = phs_inc_val * sample_rate_ + 1.0;
 110:../DaisySP/DaisySP-LGPL/Source/Effects/reverbsc.cpp ****     lp->read_pos_frac_inc = (int)(phs_inc_val * DELAYPOS_SCALE + 0.5);
 140              		.loc 1 110 47 view .LVU53
 141 00ae DFED123A 		vldr.32	s7, .L13+12
 108:../DaisySP/DaisySP-LGPL/Source/Effects/reverbsc.cpp ****     phs_inc_val           = phs_inc_val * sample_rate_ + 1.0;
 142              		.loc 1 108 51 view .LVU54
 143 00b2 B8EEC66A 		vcvt.f32.s32	s12, s12
 144              		.loc 1 110 47 view .LVU55
 145 00b6 B7EE007A 		vmov.f32	s14, #1.0e+0
ARM GAS  /var/folders/1c/r153ml_17wn3q6lsykf2p9y00000gn/T//ccFaxmsz.s 			page 6


 104:../DaisySP/DaisySP-LGPL/Source/Effects/reverbsc.cpp ****     /* next delay time in seconds */
 146              		.loc 1 104 35 view .LVU56
 147 00ba 67EEA47A 		vmul.f32	s15, s15, s9
 148              		.loc 1 110 64 view .LVU57
 149 00be B6EE004B 		vmov.f64	d4, #5.0e-1
 104:../DaisySP/DaisySP-LGPL/Source/Effects/reverbsc.cpp ****     /* next delay time in seconds */
 150              		.loc 1 104 13 view .LVU58
 151 00c2 67EEA27A 		vmul.f32	s15, s15, s5
 152              	.LVL4:
 106:../DaisySP/DaisySP-LGPL/Source/Effects/reverbsc.cpp ****     /* calculate phase increment per sample */
 153              		.loc 1 106 5 is_stmt 1 view .LVU59
 108:../DaisySP/DaisySP-LGPL/Source/Effects/reverbsc.cpp ****     phs_inc_val           = phs_inc_val * sample_rate_ + 1.0;
 154              		.loc 1 108 5 view .LVU60
 108:../DaisySP/DaisySP-LGPL/Source/Effects/reverbsc.cpp ****     phs_inc_val           = phs_inc_val * sample_rate_ + 1.0;
 155              		.loc 1 108 38 is_stmt 0 view .LVU61
 156 00c6 A3EE275A 		vfma.f32	s10, s6, s15
 157 00ca 76EEC57A 		vsub.f32	s15, s13, s10
 108:../DaisySP/DaisySP-LGPL/Source/Effects/reverbsc.cpp ****     phs_inc_val           = phs_inc_val * sample_rate_ + 1.0;
 158              		.loc 1 108 27 view .LVU62
 159 00ce C7EE866A 		vdiv.f32	s13, s15, s12
 160              	.LVL5:
 109:../DaisySP/DaisySP-LGPL/Source/Effects/reverbsc.cpp ****     lp->read_pos_frac_inc = (int)(phs_inc_val * DELAYPOS_SCALE + 0.5);
 161              		.loc 1 109 5 is_stmt 1 view .LVU63
 162              		.loc 1 110 5 view .LVU64
 163              		.loc 1 110 47 is_stmt 0 view .LVU65
 164 00d2 A5EEA67A 		vfma.f32	s14, s11, s13
 165 00d6 27EE237A 		vmul.f32	s14, s14, s7
 166 00da B7EEC77A 		vcvt.f64.f32	d7, s14
 167              		.loc 1 110 64 view .LVU66
 168 00de 37EE047B 		vadd.f64	d7, d7, d4
 169              		.loc 1 110 29 view .LVU67
 170 00e2 BDEEC77B 		vcvt.s32.f64	s14, d7
 171 00e6 81ED047A 		vstr.32	s14, [r1, #16]	@ int
 111:../DaisySP/DaisySP-LGPL/Source/Effects/reverbsc.cpp **** }
 172              		.loc 1 111 1 view .LVU68
 173 00ea 7047     		bx	lr
 174              	.L14:
 175              		.align	2
 176              	.L13:
 177 00ec 00008031 		.word	830472192
 178 00f0 00000000 		.word	_ZL13kReverbParams
 179 00f4 00000038 		.word	939524096
 180 00f8 0000804D 		.word	1300234240
 181              		.cfi_endproc
 182              	.LFE560:
 184              		.section	.text._ZN7daisysp8ReverbSc13InitDelayLineEPNS_10ReverbScDlEi,"ax",%progbits
 185              		.align	1
 186              		.p2align 2,,3
 187              		.global	_ZN7daisysp8ReverbSc13InitDelayLineEPNS_10ReverbScDlEi
 188              		.syntax unified
 189              		.thumb
 190              		.thumb_func
 192              	_ZN7daisysp8ReverbSc13InitDelayLineEPNS_10ReverbScDlEi:
 193              	.LVL6:
 194              	.LFB561:
 112:../DaisySP/DaisySP-LGPL/Source/Effects/reverbsc.cpp **** 
 113:../DaisySP/DaisySP-LGPL/Source/Effects/reverbsc.cpp **** int ReverbSc::InitDelayLine(ReverbScDl *lp, int n)
ARM GAS  /var/folders/1c/r153ml_17wn3q6lsykf2p9y00000gn/T//ccFaxmsz.s 			page 7


 114:../DaisySP/DaisySP-LGPL/Source/Effects/reverbsc.cpp **** {
 195              		.loc 1 114 1 is_stmt 1 view -0
 196              		.cfi_startproc
 197              		@ args = 0, pretend = 0, frame = 0
 198              		@ frame_needed = 0, uses_anonymous_args = 0
 115:../DaisySP/DaisySP-LGPL/Source/Effects/reverbsc.cpp ****     float read_pos;
 199              		.loc 1 115 5 view .LVU70
 116:../DaisySP/DaisySP-LGPL/Source/Effects/reverbsc.cpp ****     /* int     i; */
 117:../DaisySP/DaisySP-LGPL/Source/Effects/reverbsc.cpp **** 
 118:../DaisySP/DaisySP-LGPL/Source/Effects/reverbsc.cpp ****     /* calculate length of delay line */
 119:../DaisySP/DaisySP-LGPL/Source/Effects/reverbsc.cpp ****     lp->buffer_size = DelayLineMaxSamples(sample_rate_, 1, n);
 200              		.loc 1 119 5 view .LVU71
 114:../DaisySP/DaisySP-LGPL/Source/Effects/reverbsc.cpp ****     float read_pos;
 201              		.loc 1 114 1 is_stmt 0 view .LVU72
 202 0000 38B5     		push	{r3, r4, r5, lr}
 203              		.cfi_def_cfa_offset 16
 204              		.cfi_offset 3, -16
 205              		.cfi_offset 4, -12
 206              		.cfi_offset 5, -8
 207              		.cfi_offset 14, -4
 208              	.LBB11:
 209              	.LBB12:
  73:../DaisySP/DaisySP-LGPL/Source/Effects/reverbsc.cpp ****     max_del += (kReverbParams[n][1] * (float)i_pitch_mod * 1.125);
 210              		.loc 1 73 13 view .LVU73
 211 0002 354B     		ldr	r3, .L18+8
  74:../DaisySP/DaisySP-LGPL/Source/Effects/reverbsc.cpp ****     return (int)(max_del * sr + 16.5);
 212              		.loc 1 74 13 view .LVU74
 213 0004 B7EE020B 		vmov.f64	d0, #1.125e+0
 214              	.LBE12:
 215              	.LBE11:
 120:../DaisySP/DaisySP-LGPL/Source/Effects/reverbsc.cpp ****     lp->dummy       = 0;
 121:../DaisySP/DaisySP-LGPL/Source/Effects/reverbsc.cpp ****     lp->write_pos   = 0;
 122:../DaisySP/DaisySP-LGPL/Source/Effects/reverbsc.cpp ****     /* set random seed */
 123:../DaisySP/DaisySP-LGPL/Source/Effects/reverbsc.cpp ****     lp->seed_val = (int)(kReverbParams[n][3] + 0.5);
 216              		.loc 1 123 46 view .LVU75
 217 0008 B6EE005B 		vmov.f64	d5, #5.0e-1
 119:../DaisySP/DaisySP-LGPL/Source/Effects/reverbsc.cpp ****     lp->dummy       = 0;
 218              		.loc 1 119 42 view .LVU76
 219 000c 90ED053A 		vldr.32	s6, [r0, #20]
 220              	.LVL7:
 221              	.LBB22:
 222              	.LBI11:
  69:../DaisySP/DaisySP-LGPL/Source/Effects/reverbsc.cpp **** {
 223              		.loc 1 69 12 is_stmt 1 view .LVU77
 224              	.LBB13:
  71:../DaisySP/DaisySP-LGPL/Source/Effects/reverbsc.cpp **** 
 225              		.loc 1 71 5 view .LVU78
  73:../DaisySP/DaisySP-LGPL/Source/Effects/reverbsc.cpp ****     max_del += (kReverbParams[n][1] * (float)i_pitch_mod * 1.125);
 226              		.loc 1 73 5 view .LVU79
  73:../DaisySP/DaisySP-LGPL/Source/Effects/reverbsc.cpp ****     max_del += (kReverbParams[n][1] * (float)i_pitch_mod * 1.125);
 227              		.loc 1 73 13 is_stmt 0 view .LVU80
 228 0010 03EB0213 		add	r3, r3, r2, lsl #4
 229              	.LBE13:
 230              	.LBE22:
 124:../DaisySP/DaisySP-LGPL/Source/Effects/reverbsc.cpp ****     /* set initial delay time */
 125:../DaisySP/DaisySP-LGPL/Source/Effects/reverbsc.cpp ****     read_pos     = (float)lp->seed_val * kReverbParams[n][1] / 32768;
 231              		.loc 1 125 18 view .LVU81
ARM GAS  /var/folders/1c/r153ml_17wn3q6lsykf2p9y00000gn/T//ccFaxmsz.s 			page 8


 232 0014 9FED311A 		vldr.32	s2, .L18+12
 126:../DaisySP/DaisySP-LGPL/Source/Effects/reverbsc.cpp ****     read_pos     = kReverbParams[n][0] + (read_pos * (float)i_pitch_mod_);
 233              		.loc 1 126 18 view .LVU82
 234 0018 90ED032A 		vldr.32	s4, [r0, #12]
 120:../DaisySP/DaisySP-LGPL/Source/Effects/reverbsc.cpp ****     lp->write_pos   = 0;
 235              		.loc 1 120 21 view .LVU83
 236 001c 0025     		movs	r5, #0
 237              	.LBB23:
 238              	.LBB14:
  73:../DaisySP/DaisySP-LGPL/Source/Effects/reverbsc.cpp ****     max_del += (kReverbParams[n][1] * (float)i_pitch_mod * 1.125);
 239              		.loc 1 73 13 view .LVU84
 240 001e D3ED003A 		vldr.32	s7, [r3]
 241              	.LVL8:
  74:../DaisySP/DaisySP-LGPL/Source/Effects/reverbsc.cpp ****     return (int)(max_del * sr + 16.5);
 242              		.loc 1 74 5 is_stmt 1 view .LVU85
  74:../DaisySP/DaisySP-LGPL/Source/Effects/reverbsc.cpp ****     return (int)(max_del * sr + 16.5);
 243              		.loc 1 74 35 is_stmt 0 view .LVU86
 244 0022 D3ED012A 		vldr.32	s5, [r3, #4]
  74:../DaisySP/DaisySP-LGPL/Source/Effects/reverbsc.cpp ****     return (int)(max_del * sr + 16.5);
 245              		.loc 1 74 13 view .LVU87
 246 0026 B7EEE37A 		vcvt.f64.f32	d7, s7
 247              	.LBE14:
 248              	.LBE23:
 123:../DaisySP/DaisySP-LGPL/Source/Effects/reverbsc.cpp ****     /* set initial delay time */
 249              		.loc 1 123 44 view .LVU88
 250 002a 93ED036A 		vldr.32	s12, [r3, #12]
 127:../DaisySP/DaisySP-LGPL/Source/Effects/reverbsc.cpp ****     read_pos     = (float)lp->buffer_size - (read_pos * sample_rate_);
 128:../DaisySP/DaisySP-LGPL/Source/Effects/reverbsc.cpp ****     lp->read_pos = (int)read_pos;
 129:../DaisySP/DaisySP-LGPL/Source/Effects/reverbsc.cpp ****     read_pos     = (read_pos - (float)lp->read_pos) * (float)DELAYPOS_SCALE;
 251              		.loc 1 129 18 view .LVU89
 252 002e DFED2C1A 		vldr.32	s3, .L18+16
 123:../DaisySP/DaisySP-LGPL/Source/Effects/reverbsc.cpp ****     /* set initial delay time */
 253              		.loc 1 123 44 view .LVU90
 254 0032 B7EEC66A 		vcvt.f64.f32	d6, s12
 114:../DaisySP/DaisySP-LGPL/Source/Effects/reverbsc.cpp ****     float read_pos;
 255              		.loc 1 114 1 view .LVU91
 256 0036 2DED028B 		vpush.64	{d8}
 257              		.cfi_def_cfa_offset 24
 258              		.cfi_offset 80, -24
 259              		.cfi_offset 81, -20
 260              	.LBB24:
 261              	.LBB15:
  74:../DaisySP/DaisySP-LGPL/Source/Effects/reverbsc.cpp ****     return (int)(max_del * sr + 16.5);
 262              		.loc 1 74 37 view .LVU92
 263 003a B7EEE28A 		vcvt.f64.f32	d8, s5
 264              	.LBE15:
 265              	.LBE24:
 120:../DaisySP/DaisySP-LGPL/Source/Effects/reverbsc.cpp ****     lp->write_pos   = 0;
 266              		.loc 1 120 21 view .LVU93
 267 003e 4D61     		str	r5, [r1, #20]
 123:../DaisySP/DaisySP-LGPL/Source/Effects/reverbsc.cpp ****     /* set initial delay time */
 268              		.loc 1 123 46 view .LVU94
 269 0040 36EE056B 		vadd.f64	d6, d6, d5
 121:../DaisySP/DaisySP-LGPL/Source/Effects/reverbsc.cpp ****     /* set random seed */
 270              		.loc 1 121 21 view .LVU95
 271 0044 0D60     		str	r5, [r1]
 272              	.LBB25:
ARM GAS  /var/folders/1c/r153ml_17wn3q6lsykf2p9y00000gn/T//ccFaxmsz.s 			page 9


 273              	.LBB16:
  74:../DaisySP/DaisySP-LGPL/Source/Effects/reverbsc.cpp ****     return (int)(max_del * sr + 16.5);
 274              		.loc 1 74 13 view .LVU96
 275 0046 A8EE007B 		vfma.f64	d7, d8, d0
 276              	.LVL9:
  75:../DaisySP/DaisySP-LGPL/Source/Effects/reverbsc.cpp **** }
 277              		.loc 1 75 5 is_stmt 1 view .LVU97
 278              	.LBE16:
 279              	.LBE25:
 123:../DaisySP/DaisySP-LGPL/Source/Effects/reverbsc.cpp ****     /* set initial delay time */
 280              		.loc 1 123 20 is_stmt 0 view .LVU98
 281 004a BDEEC66B 		vcvt.s32.f64	s12, d6
 282              	.LBB26:
 283              	.LBB17:
  75:../DaisySP/DaisySP-LGPL/Source/Effects/reverbsc.cpp **** }
 284              		.loc 1 75 31 view .LVU99
 285 004e 9FED204B 		vldr.64	d4, .L18
 286              	.LBE17:
 287              	.LBE26:
 125:../DaisySP/DaisySP-LGPL/Source/Effects/reverbsc.cpp ****     read_pos     = kReverbParams[n][0] + (read_pos * (float)i_pitch_mod_);
 288              		.loc 1 125 20 view .LVU100
 289 0052 F8EEC66A 		vcvt.f32.s32	s13, s12
 123:../DaisySP/DaisySP-LGPL/Source/Effects/reverbsc.cpp ****     /* set initial delay time */
 290              		.loc 1 123 18 view .LVU101
 291 0056 81ED066A 		vstr.32	s12, [r1, #24]	@ int
 292              	.LBB27:
 293              	.LBB18:
  74:../DaisySP/DaisySP-LGPL/Source/Effects/reverbsc.cpp ****     return (int)(max_del * sr + 16.5);
 294              		.loc 1 74 13 view .LVU102
 295 005a B7EEC77B 		vcvt.f32.f64	s14, d7
 296              	.LVL10:
  74:../DaisySP/DaisySP-LGPL/Source/Effects/reverbsc.cpp ****     return (int)(max_del * sr + 16.5);
 297              		.loc 1 74 13 view .LVU103
 298              	.LBE18:
 299              	.LBE27:
 125:../DaisySP/DaisySP-LGPL/Source/Effects/reverbsc.cpp ****     read_pos     = kReverbParams[n][0] + (read_pos * (float)i_pitch_mod_);
 300              		.loc 1 125 40 view .LVU104
 301 005e 66EEA26A 		vmul.f32	s13, s13, s5
 302              	.LBB28:
 303              	.LBB19:
  75:../DaisySP/DaisySP-LGPL/Source/Effects/reverbsc.cpp **** }
 304              		.loc 1 75 26 view .LVU105
 305 0062 27EE037A 		vmul.f32	s14, s14, s6
 306              	.LVL11:
  75:../DaisySP/DaisySP-LGPL/Source/Effects/reverbsc.cpp **** }
 307              		.loc 1 75 26 view .LVU106
 308              	.LBE19:
 309              	.LBE28:
 125:../DaisySP/DaisySP-LGPL/Source/Effects/reverbsc.cpp ****     read_pos     = kReverbParams[n][0] + (read_pos * (float)i_pitch_mod_);
 310              		.loc 1 125 18 view .LVU107
 311 0066 66EE816A 		vmul.f32	s13, s13, s2
 312              	.LBB29:
 313              	.LBB20:
  75:../DaisySP/DaisySP-LGPL/Source/Effects/reverbsc.cpp **** }
 314              		.loc 1 75 26 view .LVU108
 315 006a B7EEC77A 		vcvt.f64.f32	d7, s14
 316              	.LBE20:
ARM GAS  /var/folders/1c/r153ml_17wn3q6lsykf2p9y00000gn/T//ccFaxmsz.s 			page 10


 317              	.LBE29:
 126:../DaisySP/DaisySP-LGPL/Source/Effects/reverbsc.cpp ****     read_pos     = (float)lp->buffer_size - (read_pos * sample_rate_);
 318              		.loc 1 126 18 view .LVU109
 319 006e E2EE263A 		vfma.f32	s7, s4, s13
 320              	.LVL12:
 321              	.LBB30:
 322              	.LBB21:
  75:../DaisySP/DaisySP-LGPL/Source/Effects/reverbsc.cpp **** }
 323              		.loc 1 75 31 view .LVU110
 324 0072 37EE047B 		vadd.f64	d7, d7, d4
  75:../DaisySP/DaisySP-LGPL/Source/Effects/reverbsc.cpp **** }
 325              		.loc 1 75 37 view .LVU111
 326 0076 BDEEC72B 		vcvt.s32.f64	s4, d7
 327              	.LVL13:
  75:../DaisySP/DaisySP-LGPL/Source/Effects/reverbsc.cpp **** }
 328              		.loc 1 75 37 view .LVU112
 329              	.LBE21:
 330              	.LBE30:
 127:../DaisySP/DaisySP-LGPL/Source/Effects/reverbsc.cpp ****     lp->read_pos = (int)read_pos;
 331              		.loc 1 127 20 view .LVU113
 332 007a B8EEC27A 		vcvt.f32.s32	s14, s4
 119:../DaisySP/DaisySP-LGPL/Source/Effects/reverbsc.cpp ****     lp->dummy       = 0;
 333              		.loc 1 119 21 discriminator 1 view .LVU114
 334 007e 81ED012A 		vstr.32	s4, [r1, #4]	@ int
 120:../DaisySP/DaisySP-LGPL/Source/Effects/reverbsc.cpp ****     lp->write_pos   = 0;
 335              		.loc 1 120 5 is_stmt 1 view .LVU115
 127:../DaisySP/DaisySP-LGPL/Source/Effects/reverbsc.cpp ****     lp->read_pos = (int)read_pos;
 336              		.loc 1 127 18 is_stmt 0 view .LVU116
 337 0082 A3EE637A 		vfms.f32	s14, s6, s7
 128:../DaisySP/DaisySP-LGPL/Source/Effects/reverbsc.cpp ****     read_pos     = (read_pos - (float)lp->read_pos) * (float)DELAYPOS_SCALE;
 338              		.loc 1 128 20 view .LVU117
 339 0086 FDEEC77A 		vcvt.s32.f32	s15, s14
 340              		.loc 1 129 32 view .LVU118
 341 008a F8EEE76A 		vcvt.f32.s32	s13, s15
 128:../DaisySP/DaisySP-LGPL/Source/Effects/reverbsc.cpp ****     read_pos     = (read_pos - (float)lp->read_pos) * (float)DELAYPOS_SCALE;
 342              		.loc 1 128 18 view .LVU119
 343 008e C1ED027A 		vstr.32	s15, [r1, #8]	@ int
 344              		.loc 1 129 30 view .LVU120
 345 0092 37EE667A 		vsub.f32	s14, s14, s13
 121:../DaisySP/DaisySP-LGPL/Source/Effects/reverbsc.cpp ****     /* set random seed */
 346              		.loc 1 121 5 is_stmt 1 view .LVU121
 123:../DaisySP/DaisySP-LGPL/Source/Effects/reverbsc.cpp ****     /* set initial delay time */
 347              		.loc 1 123 5 view .LVU122
 125:../DaisySP/DaisySP-LGPL/Source/Effects/reverbsc.cpp ****     read_pos     = kReverbParams[n][0] + (read_pos * (float)i_pitch_mod_);
 348              		.loc 1 125 5 view .LVU123
 349              	.LVL14:
 126:../DaisySP/DaisySP-LGPL/Source/Effects/reverbsc.cpp ****     read_pos     = (float)lp->buffer_size - (read_pos * sample_rate_);
 350              		.loc 1 126 5 view .LVU124
 127:../DaisySP/DaisySP-LGPL/Source/Effects/reverbsc.cpp ****     lp->read_pos = (int)read_pos;
 351              		.loc 1 127 5 view .LVU125
 128:../DaisySP/DaisySP-LGPL/Source/Effects/reverbsc.cpp ****     read_pos     = (read_pos - (float)lp->read_pos) * (float)DELAYPOS_SCALE;
 352              		.loc 1 128 5 view .LVU126
 353              		.loc 1 129 5 view .LVU127
 130:../DaisySP/DaisySP-LGPL/Source/Effects/reverbsc.cpp ****     lp->read_pos_frac = (int)(read_pos + 0.5);
 354              		.loc 1 130 5 view .LVU128
 129:../DaisySP/DaisySP-LGPL/Source/Effects/reverbsc.cpp ****     lp->read_pos_frac = (int)(read_pos + 0.5);
 355              		.loc 1 129 18 is_stmt 0 view .LVU129
ARM GAS  /var/folders/1c/r153ml_17wn3q6lsykf2p9y00000gn/T//ccFaxmsz.s 			page 11


 356 0096 27EE217A 		vmul.f32	s14, s14, s3
 357              	.LVL15:
 358              		.loc 1 130 31 view .LVU130
 359 009a B7EEC77A 		vcvt.f64.f32	d7, s14
 360              		.loc 1 130 40 view .LVU131
 361 009e 37EE057B 		vadd.f64	d7, d7, d5
 362              		.loc 1 130 25 view .LVU132
 363 00a2 BDEEC77B 		vcvt.s32.f64	s14, d7
 364 00a6 81ED037A 		vstr.32	s14, [r1, #12]	@ int
 131:../DaisySP/DaisySP-LGPL/Source/Effects/reverbsc.cpp ****     /* initialise first random line segment */
 132:../DaisySP/DaisySP-LGPL/Source/Effects/reverbsc.cpp ****     NextRandomLineseg(lp, n);
 365              		.loc 1 132 5 is_stmt 1 view .LVU133
 366              		.loc 1 132 22 is_stmt 0 view .LVU134
 367 00aa FFF7FEFF 		bl	_ZN7daisysp8ReverbSc17NextRandomLinesegEPNS_10ReverbScDlEi
 368              	.LVL16:
 133:../DaisySP/DaisySP-LGPL/Source/Effects/reverbsc.cpp ****     /* clear delay line to zero */
 134:../DaisySP/DaisySP-LGPL/Source/Effects/reverbsc.cpp ****     lp->filter_state = 0.0;
 369              		.loc 1 134 5 is_stmt 1 view .LVU135
 370              		.loc 1 134 22 is_stmt 0 view .LVU136
 371 00ae 0023     		movs	r3, #0
 372 00b0 0B62     		str	r3, [r1, #32]	@ float
 135:../DaisySP/DaisySP-LGPL/Source/Effects/reverbsc.cpp ****     for(int i = 0; i < lp->buffer_size; i++)
 373              		.loc 1 135 5 is_stmt 1 view .LVU137
 374              	.LVL17:
 375              	.LBB31:
 376              		.loc 1 135 22 discriminator 1 view .LVU138
 377 00b2 12EE103A 		vmov	r3, s4	@ int
 378 00b6 AB42     		cmp	r3, r5
 379 00b8 05DD     		ble	.L16
 380 00ba 0C46     		mov	r4, r1
 136:../DaisySP/DaisySP-LGPL/Source/Effects/reverbsc.cpp ****     {
 137:../DaisySP/DaisySP-LGPL/Source/Effects/reverbsc.cpp ****         lp->buf[i] = 0;
 381              		.loc 1 137 20 is_stmt 0 view .LVU139
 382 00bc 9A00     		lsls	r2, r3, #2
 383              	.LVL18:
 384              		.loc 1 137 20 view .LVU140
 385 00be 2946     		mov	r1, r5
 386              	.LVL19:
 387              		.loc 1 137 20 view .LVU141
 388 00c0 606A     		ldr	r0, [r4, #36]
 389              	.LVL20:
 390              		.loc 1 137 20 view .LVU142
 391 00c2 FFF7FEFF 		bl	memset
 392              	.LVL21:
 393              	.L16:
 394              		.loc 1 137 20 view .LVU143
 395              	.LBE31:
 138:../DaisySP/DaisySP-LGPL/Source/Effects/reverbsc.cpp ****     }
 139:../DaisySP/DaisySP-LGPL/Source/Effects/reverbsc.cpp ****     return REVSC_OK;
 396              		.loc 1 139 5 is_stmt 1 view .LVU144
 140:../DaisySP/DaisySP-LGPL/Source/Effects/reverbsc.cpp **** }
 397              		.loc 1 140 1 is_stmt 0 view .LVU145
 398 00c6 0020     		movs	r0, #0
 399 00c8 BDEC028B 		vldm	sp!, {d8}
 400              		.cfi_restore 80
 401              		.cfi_restore 81
 402              		.cfi_def_cfa_offset 16
ARM GAS  /var/folders/1c/r153ml_17wn3q6lsykf2p9y00000gn/T//ccFaxmsz.s 			page 12


 403 00cc 38BD     		pop	{r3, r4, r5, pc}
 404              	.L19:
 405 00ce 00BF     		.align	3
 406              	.L18:
 407 00d0 00000000 		.word	0
 408 00d4 00803040 		.word	1076920320
 409 00d8 00000000 		.word	_ZL13kReverbParams
 410 00dc 00000038 		.word	939524096
 411 00e0 0000804D 		.word	1300234240
 412              		.cfi_endproc
 413              	.LFE561:
 415              		.section	.text._ZN7daisysp8ReverbSc4InitEf,"ax",%progbits
 416              		.align	1
 417              		.p2align 2,,3
 418              		.global	_ZN7daisysp8ReverbSc4InitEf
 419              		.syntax unified
 420              		.thumb
 421              		.thumb_func
 423              	_ZN7daisysp8ReverbSc4InitEf:
 424              	.LVL22:
 425              	.LFB557:
  46:../DaisySP/DaisySP-LGPL/Source/Effects/reverbsc.cpp ****     i_sample_rate_ = sr;
 426              		.loc 1 46 1 is_stmt 1 view -0
 427              		.cfi_startproc
 428              		@ args = 0, pretend = 0, frame = 0
 429              		@ frame_needed = 0, uses_anonymous_args = 0
  47:../DaisySP/DaisySP-LGPL/Source/Effects/reverbsc.cpp ****     sample_rate_   = sr;
 430              		.loc 1 47 5 view .LVU147
  46:../DaisySP/DaisySP-LGPL/Source/Effects/reverbsc.cpp ****     i_sample_rate_ = sr;
 431              		.loc 1 46 1 is_stmt 0 view .LVU148
 432 0000 2DE9F843 		push	{r3, r4, r5, r6, r7, r8, r9, lr}
 433              		.cfi_def_cfa_offset 32
 434              		.cfi_offset 3, -32
 435              		.cfi_offset 4, -28
 436              		.cfi_offset 5, -24
 437              		.cfi_offset 6, -20
 438              		.cfi_offset 7, -16
 439              		.cfi_offset 8, -12
 440              		.cfi_offset 9, -8
 441              		.cfi_offset 14, -4
  50:../DaisySP/DaisySP-LGPL/Source/Effects/reverbsc.cpp ****     i_pitch_mod_   = 1;
 442              		.loc 1 50 20 view .LVU149
 443 0004 2E49     		ldr	r1, .L26+8
  46:../DaisySP/DaisySP-LGPL/Source/Effects/reverbsc.cpp ****     i_sample_rate_ = sr;
 444              		.loc 1 46 1 view .LVU150
 445 0006 0746     		mov	r7, r0
  51:../DaisySP/DaisySP-LGPL/Source/Effects/reverbsc.cpp ****     i_skip_init_   = 0;
 446              		.loc 1 51 20 view .LVU151
 447 0008 4FF07E52 		mov	r2, #1065353216
  52:../DaisySP/DaisySP-LGPL/Source/Effects/reverbsc.cpp ****     damp_fact_     = 1.0;
 448              		.loc 1 52 20 view .LVU152
 449 000c 0023     		movs	r3, #0
  49:../DaisySP/DaisySP-LGPL/Source/Effects/reverbsc.cpp ****     lpfreq_        = 10000;
 450              		.loc 1 49 20 view .LVU153
 451 000e 2D48     		ldr	r0, .L26+12
 452              	.LVL23:
  57:../DaisySP/DaisySP-LGPL/Source/Effects/reverbsc.cpp ****     for(i = 0; i < 8; i++)
ARM GAS  /var/folders/1c/r153ml_17wn3q6lsykf2p9y00000gn/T//ccFaxmsz.s 			page 13


 453              		.loc 1 57 13 view .LVU154
 454 0010 0026     		movs	r6, #0
 455 0012 07F12405 		add	r5, r7, #36
 456 0016 DFF8B480 		ldr	r8, .L26+20
  58:../DaisySP/DaisySP-LGPL/Source/Effects/reverbsc.cpp ****     {
 457              		.loc 1 58 11 view .LVU155
 458 001a 3446     		mov	r4, r6
 459 001c 07F5B279 		add	r9, r7, #356
  46:../DaisySP/DaisySP-LGPL/Source/Effects/reverbsc.cpp ****     i_sample_rate_ = sr;
 460              		.loc 1 46 1 view .LVU156
 461 0020 2DED028B 		vpush.64	{d8}
 462              		.cfi_def_cfa_offset 40
 463              		.cfi_offset 80, -40
 464              		.cfi_offset 81, -36
  50:../DaisySP/DaisySP-LGPL/Source/Effects/reverbsc.cpp ****     i_pitch_mod_   = 1;
 465              		.loc 1 50 20 view .LVU157
 466 0024 7960     		str	r1, [r7, #4]	@ float
  55:../DaisySP/DaisySP-LGPL/Source/Effects/reverbsc.cpp ****     int i, n_bytes = 0;
 467              		.loc 1 55 20 view .LVU158
 468 0026 0121     		movs	r1, #1
  46:../DaisySP/DaisySP-LGPL/Source/Effects/reverbsc.cpp ****     i_sample_rate_ = sr;
 469              		.loc 1 46 1 view .LVU159
 470 0028 B0EE408A 		vmov.f32	s16, s0
  47:../DaisySP/DaisySP-LGPL/Source/Effects/reverbsc.cpp ****     sample_rate_   = sr;
 471              		.loc 1 47 20 view .LVU160
 472 002c 87ED020A 		vstr.32	s0, [r7, #8]
  48:../DaisySP/DaisySP-LGPL/Source/Effects/reverbsc.cpp ****     feedback_      = 0.97;
 473              		.loc 1 48 5 is_stmt 1 view .LVU161
  48:../DaisySP/DaisySP-LGPL/Source/Effects/reverbsc.cpp ****     feedback_      = 0.97;
 474              		.loc 1 48 20 is_stmt 0 view .LVU162
 475 0030 87ED050A 		vstr.32	s0, [r7, #20]
  49:../DaisySP/DaisySP-LGPL/Source/Effects/reverbsc.cpp ****     lpfreq_        = 10000;
 476              		.loc 1 49 5 is_stmt 1 view .LVU163
  49:../DaisySP/DaisySP-LGPL/Source/Effects/reverbsc.cpp ****     lpfreq_        = 10000;
 477              		.loc 1 49 20 is_stmt 0 view .LVU164
 478 0034 3860     		str	r0, [r7]	@ float
  50:../DaisySP/DaisySP-LGPL/Source/Effects/reverbsc.cpp ****     i_pitch_mod_   = 1;
 479              		.loc 1 50 5 is_stmt 1 view .LVU165
  51:../DaisySP/DaisySP-LGPL/Source/Effects/reverbsc.cpp ****     i_skip_init_   = 0;
 480              		.loc 1 51 5 view .LVU166
  51:../DaisySP/DaisySP-LGPL/Source/Effects/reverbsc.cpp ****     i_skip_init_   = 0;
 481              		.loc 1 51 20 is_stmt 0 view .LVU167
 482 0036 FA60     		str	r2, [r7, #12]	@ float
  52:../DaisySP/DaisySP-LGPL/Source/Effects/reverbsc.cpp ****     damp_fact_     = 1.0;
 483              		.loc 1 52 5 is_stmt 1 view .LVU168
  52:../DaisySP/DaisySP-LGPL/Source/Effects/reverbsc.cpp ****     damp_fact_     = 1.0;
 484              		.loc 1 52 20 is_stmt 0 view .LVU169
 485 0038 3B61     		str	r3, [r7, #16]	@ float
  53:../DaisySP/DaisySP-LGPL/Source/Effects/reverbsc.cpp ****     prv_lpfreq_    = 0.0;
 486              		.loc 1 53 5 is_stmt 1 view .LVU170
  53:../DaisySP/DaisySP-LGPL/Source/Effects/reverbsc.cpp ****     prv_lpfreq_    = 0.0;
 487              		.loc 1 53 20 is_stmt 0 view .LVU171
 488 003a BA61     		str	r2, [r7, #24]	@ float
  54:../DaisySP/DaisySP-LGPL/Source/Effects/reverbsc.cpp ****     init_done_     = 1;
 489              		.loc 1 54 5 is_stmt 1 view .LVU172
  54:../DaisySP/DaisySP-LGPL/Source/Effects/reverbsc.cpp ****     init_done_     = 1;
 490              		.loc 1 54 20 is_stmt 0 view .LVU173
ARM GAS  /var/folders/1c/r153ml_17wn3q6lsykf2p9y00000gn/T//ccFaxmsz.s 			page 14


 491 003c FB61     		str	r3, [r7, #28]	@ float
  55:../DaisySP/DaisySP-LGPL/Source/Effects/reverbsc.cpp ****     int i, n_bytes = 0;
 492              		.loc 1 55 5 is_stmt 1 view .LVU174
  55:../DaisySP/DaisySP-LGPL/Source/Effects/reverbsc.cpp ****     int i, n_bytes = 0;
 493              		.loc 1 55 20 is_stmt 0 view .LVU175
 494 003e 3962     		str	r1, [r7, #32]
  56:../DaisySP/DaisySP-LGPL/Source/Effects/reverbsc.cpp ****     n_bytes = 0;
 495              		.loc 1 56 5 is_stmt 1 view .LVU176
  57:../DaisySP/DaisySP-LGPL/Source/Effects/reverbsc.cpp ****     for(i = 0; i < 8; i++)
 496              		.loc 1 57 5 view .LVU177
  58:../DaisySP/DaisySP-LGPL/Source/Effects/reverbsc.cpp ****     {
 497              		.loc 1 58 5 view .LVU178
 498              	.LVL24:
  58:../DaisySP/DaisySP-LGPL/Source/Effects/reverbsc.cpp ****     {
 499              		.loc 1 58 18 discriminator 1 view .LVU179
  60:../DaisySP/DaisySP-LGPL/Source/Effects/reverbsc.cpp ****             return 1;
 500              		.loc 1 60 9 view .LVU180
 501 0040 1CE0     		b	.L21
 502              	.LVL25:
 503              	.L23:
 504              	.LBB32:
 505              	.LBB33:
 506              	.LBB34:
 507              	.LBB35:
  74:../DaisySP/DaisySP-LGPL/Source/Effects/reverbsc.cpp ****     return (int)(max_del * sr + 16.5);
 508              		.loc 1 74 13 is_stmt 0 view .LVU181
 509 0042 4246     		mov	r2, r8
  74:../DaisySP/DaisySP-LGPL/Source/Effects/reverbsc.cpp ****     return (int)(max_del * sr + 16.5);
 510              		.loc 1 74 37 view .LVU182
 511 0044 98ED016A 		vldr.32	s12, [r8, #4]
  74:../DaisySP/DaisySP-LGPL/Source/Effects/reverbsc.cpp ****     return (int)(max_del * sr + 16.5);
 512              		.loc 1 74 13 view .LVU183
 513 0048 08F11008 		add	r8, r8, #16
 514 004c 92ED007A 		vldr.32	s14, [r2]
  74:../DaisySP/DaisySP-LGPL/Source/Effects/reverbsc.cpp ****     return (int)(max_del * sr + 16.5);
 515              		.loc 1 74 37 view .LVU184
 516 0050 B7EEC66A 		vcvt.f64.f32	d6, s12
  74:../DaisySP/DaisySP-LGPL/Source/Effects/reverbsc.cpp ****     return (int)(max_del * sr + 16.5);
 517              		.loc 1 74 13 view .LVU185
 518 0054 B7EEC77A 		vcvt.f64.f32	d7, s14
 519 0058 A6EE047B 		vfma.f64	d7, d6, d4
 520 005c B7EEC77B 		vcvt.f32.f64	s14, d7
  75:../DaisySP/DaisySP-LGPL/Source/Effects/reverbsc.cpp **** }
 521              		.loc 1 75 26 view .LVU186
 522 0060 27EE087A 		vmul.f32	s14, s14, s16
 523 0064 B7EEC77A 		vcvt.f64.f32	d7, s14
  75:../DaisySP/DaisySP-LGPL/Source/Effects/reverbsc.cpp **** }
 524              		.loc 1 75 31 view .LVU187
 525 0068 37EE057B 		vadd.f64	d7, d7, d5
  75:../DaisySP/DaisySP-LGPL/Source/Effects/reverbsc.cpp **** }
 526              		.loc 1 75 37 view .LVU188
 527 006c BDEEC77B 		vcvt.s32.f64	s14, d7
 528              	.LBE35:
 529              	.LBE34:
 530              	.LBE33:
 531              	.LBE32:
  64:../DaisySP/DaisySP-LGPL/Source/Effects/reverbsc.cpp ****     }
ARM GAS  /var/folders/1c/r153ml_17wn3q6lsykf2p9y00000gn/T//ccFaxmsz.s 			page 15


 532              		.loc 1 64 17 discriminator 1 view .LVU189
 533 0070 17EE102A 		vmov	r2, s14	@ int
 534 0074 06EB8206 		add	r6, r6, r2, lsl #2
 535              	.LVL26:
  60:../DaisySP/DaisySP-LGPL/Source/Effects/reverbsc.cpp ****             return 1;
 536              		.loc 1 60 9 is_stmt 1 view .LVU190
 537 0078 9E42     		cmp	r6, r3
 538 007a 16DC     		bgt	.L24
 539              	.LVL27:
 540              	.L21:
  62:../DaisySP/DaisySP-LGPL/Source/Effects/reverbsc.cpp ****         InitDelayLine(&delay_lines_[i], i);
 541              		.loc 1 62 9 view .LVU191
  62:../DaisySP/DaisySP-LGPL/Source/Effects/reverbsc.cpp ****         InitDelayLine(&delay_lines_[i], i);
 542              		.loc 1 62 38 is_stmt 0 view .LVU192
 543 007c 09EB8603 		add	r3, r9, r6, lsl #2
  63:../DaisySP/DaisySP-LGPL/Source/Effects/reverbsc.cpp ****         n_bytes += DelayLineBytesAlloc(sr, 1, i);
 544              		.loc 1 63 22 view .LVU193
 545 0080 2246     		mov	r2, r4
  58:../DaisySP/DaisySP-LGPL/Source/Effects/reverbsc.cpp ****     {
 546              		.loc 1 58 5 discriminator 2 view .LVU194
 547 0082 0134     		adds	r4, r4, #1
 548              	.LVL28:
  63:../DaisySP/DaisySP-LGPL/Source/Effects/reverbsc.cpp ****         n_bytes += DelayLineBytesAlloc(sr, 1, i);
 549              		.loc 1 63 22 view .LVU195
 550 0084 2946     		mov	r1, r5
  62:../DaisySP/DaisySP-LGPL/Source/Effects/reverbsc.cpp ****         InitDelayLine(&delay_lines_[i], i);
 551              		.loc 1 62 29 view .LVU196
 552 0086 6B62     		str	r3, [r5, #36]
  63:../DaisySP/DaisySP-LGPL/Source/Effects/reverbsc.cpp ****         n_bytes += DelayLineBytesAlloc(sr, 1, i);
 553              		.loc 1 63 9 is_stmt 1 view .LVU197
  63:../DaisySP/DaisySP-LGPL/Source/Effects/reverbsc.cpp ****         n_bytes += DelayLineBytesAlloc(sr, 1, i);
 554              		.loc 1 63 22 is_stmt 0 view .LVU198
 555 0088 3846     		mov	r0, r7
 556 008a FFF7FEFF 		bl	_ZN7daisysp8ReverbSc13InitDelayLineEPNS_10ReverbScDlEi
 557              	.LVL29:
  64:../DaisySP/DaisySP-LGPL/Source/Effects/reverbsc.cpp ****     }
 558              		.loc 1 64 9 is_stmt 1 view .LVU199
 559              	.LBB45:
 560              	.LBI32:
  78:../DaisySP/DaisySP-LGPL/Source/Effects/reverbsc.cpp **** {
 561              		.loc 1 78 12 view .LVU200
 562              	.LBB42:
  80:../DaisySP/DaisySP-LGPL/Source/Effects/reverbsc.cpp **** 
 563              		.loc 1 80 5 view .LVU201
  82:../DaisySP/DaisySP-LGPL/Source/Effects/reverbsc.cpp ****     return n_bytes;
 564              		.loc 1 82 5 view .LVU202
 565              	.LBB39:
 566              	.LBI34:
  69:../DaisySP/DaisySP-LGPL/Source/Effects/reverbsc.cpp **** {
 567              		.loc 1 69 12 view .LVU203
 568              	.LBB36:
  71:../DaisySP/DaisySP-LGPL/Source/Effects/reverbsc.cpp **** 
 569              		.loc 1 71 5 view .LVU204
  73:../DaisySP/DaisySP-LGPL/Source/Effects/reverbsc.cpp ****     max_del += (kReverbParams[n][1] * (float)i_pitch_mod * 1.125);
 570              		.loc 1 73 5 view .LVU205
  74:../DaisySP/DaisySP-LGPL/Source/Effects/reverbsc.cpp ****     return (int)(max_del * sr + 16.5);
 571              		.loc 1 74 5 view .LVU206
ARM GAS  /var/folders/1c/r153ml_17wn3q6lsykf2p9y00000gn/T//ccFaxmsz.s 			page 16


  75:../DaisySP/DaisySP-LGPL/Source/Effects/reverbsc.cpp **** }
 572              		.loc 1 75 5 view .LVU207
  75:../DaisySP/DaisySP-LGPL/Source/Effects/reverbsc.cpp **** }
 573              		.loc 1 75 5 is_stmt 0 view .LVU208
 574              	.LBE36:
 575              	.LBE39:
  83:../DaisySP/DaisySP-LGPL/Source/Effects/reverbsc.cpp **** }
 576              		.loc 1 83 5 is_stmt 1 view .LVU209
  83:../DaisySP/DaisySP-LGPL/Source/Effects/reverbsc.cpp **** }
 577              		.loc 1 83 5 is_stmt 0 view .LVU210
 578              	.LBE42:
 579              	.LBE45:
  58:../DaisySP/DaisySP-LGPL/Source/Effects/reverbsc.cpp ****     {
 580              		.loc 1 58 5 is_stmt 1 discriminator 2 view .LVU211
  58:../DaisySP/DaisySP-LGPL/Source/Effects/reverbsc.cpp ****     {
 581              		.loc 1 58 18 discriminator 1 view .LVU212
 582 008e 082C     		cmp	r4, #8
 583              	.LBB46:
 584              	.LBB43:
 585              	.LBB40:
 586              	.LBB37:
  74:../DaisySP/DaisySP-LGPL/Source/Effects/reverbsc.cpp ****     return (int)(max_del * sr + 16.5);
 587              		.loc 1 74 13 is_stmt 0 view .LVU213
 588 0090 B7EE024B 		vmov.f64	d4, #1.125e+0
 589              	.LBE37:
 590              	.LBE40:
 591              	.LBE43:
 592              	.LBE46:
  60:../DaisySP/DaisySP-LGPL/Source/Effects/reverbsc.cpp ****             return 1;
 593              		.loc 1 60 9 view .LVU214
 594 0094 0C4B     		ldr	r3, .L26+16
 595 0096 05F12805 		add	r5, r5, #40
 596              	.LBB47:
 597              	.LBB44:
 598              	.LBB41:
 599              	.LBB38:
  75:../DaisySP/DaisySP-LGPL/Source/Effects/reverbsc.cpp **** }
 600              		.loc 1 75 31 view .LVU215
 601 009a 9FED075B 		vldr.64	d5, .L26
 602              	.LBE38:
 603              	.LBE41:
 604              	.LBE44:
 605              	.LBE47:
  58:../DaisySP/DaisySP-LGPL/Source/Effects/reverbsc.cpp ****     {
 606              		.loc 1 58 18 discriminator 1 view .LVU216
 607 009e D0D1     		bne	.L23
  66:../DaisySP/DaisySP-LGPL/Source/Effects/reverbsc.cpp **** }
 608              		.loc 1 66 12 view .LVU217
 609 00a0 0020     		movs	r0, #0
  67:../DaisySP/DaisySP-LGPL/Source/Effects/reverbsc.cpp **** 
 610              		.loc 1 67 1 view .LVU218
 611 00a2 BDEC028B 		vldm	sp!, {d8}
 612              		.cfi_remember_state
 613              		.cfi_restore 80
 614              		.cfi_restore 81
 615              		.cfi_def_cfa_offset 32
 616              	.LVL30:
ARM GAS  /var/folders/1c/r153ml_17wn3q6lsykf2p9y00000gn/T//ccFaxmsz.s 			page 17


  67:../DaisySP/DaisySP-LGPL/Source/Effects/reverbsc.cpp **** 
 617              		.loc 1 67 1 view .LVU219
 618 00a6 BDE8F883 		pop	{r3, r4, r5, r6, r7, r8, r9, pc}
 619              	.LVL31:
 620              	.L24:
 621              		.cfi_restore_state
  67:../DaisySP/DaisySP-LGPL/Source/Effects/reverbsc.cpp **** 
 622              		.loc 1 67 1 view .LVU220
 623 00aa BDEC028B 		vldm	sp!, {d8}
 624              		.cfi_restore 80
 625              		.cfi_restore 81
 626              		.cfi_def_cfa_offset 32
 627              	.LVL32:
  61:../DaisySP/DaisySP-LGPL/Source/Effects/reverbsc.cpp ****         delay_lines_[i].buf = (aux_) + n_bytes;
 628              		.loc 1 61 20 view .LVU221
 629 00ae 0120     		movs	r0, #1
  67:../DaisySP/DaisySP-LGPL/Source/Effects/reverbsc.cpp **** 
 630              		.loc 1 67 1 view .LVU222
 631 00b0 BDE8F883 		pop	{r3, r4, r5, r6, r7, r8, r9, pc}
 632              	.LVL33:
 633              	.L27:
  67:../DaisySP/DaisySP-LGPL/Source/Effects/reverbsc.cpp **** 
 634              		.loc 1 67 1 view .LVU223
 635 00b4 AFF30080 		.align	3
 636              	.L26:
 637 00b8 00000000 		.word	0
 638 00bc 00803040 		.word	1076920320
 639 00c0 00401C46 		.word	1176256512
 640 00c4 EC51783F 		.word	1064849900
 641 00c8 78820100 		.word	98936
 642 00cc 00000000 		.word	_ZL13kReverbParams
 643              		.cfi_endproc
 644              	.LFE557:
 646              		.section	.text._ZN7daisysp8ReverbSc7ProcessERKfS2_PfS3_,"ax",%progbits
 647              		.align	1
 648              		.p2align 2,,3
 649              		.global	_ZN7daisysp8ReverbSc7ProcessERKfS2_PfS3_
 650              		.syntax unified
 651              		.thumb
 652              		.thumb_func
 654              	_ZN7daisysp8ReverbSc7ProcessERKfS2_PfS3_:
 655              	.LVL34:
 656              	.LFB562:
 141:../DaisySP/DaisySP-LGPL/Source/Effects/reverbsc.cpp **** 
 142:../DaisySP/DaisySP-LGPL/Source/Effects/reverbsc.cpp **** int ReverbSc::Process(const float &in1,
 143:../DaisySP/DaisySP-LGPL/Source/Effects/reverbsc.cpp ****                       const float &in2,
 144:../DaisySP/DaisySP-LGPL/Source/Effects/reverbsc.cpp ****                       float *      out1,
 145:../DaisySP/DaisySP-LGPL/Source/Effects/reverbsc.cpp ****                       float *      out2)
 146:../DaisySP/DaisySP-LGPL/Source/Effects/reverbsc.cpp **** {
 657              		.loc 1 146 1 is_stmt 1 view -0
 658              		.cfi_startproc
 659              		@ args = 4, pretend = 0, frame = 8
 660              		@ frame_needed = 0, uses_anonymous_args = 0
 147:../DaisySP/DaisySP-LGPL/Source/Effects/reverbsc.cpp ****     float       a_in_l, a_in_r, a_out_l, a_out_r;
 661              		.loc 1 147 5 view .LVU225
 148:../DaisySP/DaisySP-LGPL/Source/Effects/reverbsc.cpp ****     float       vm1, v0, v1, v2, am1, a0, a1, a2, frac;
 662              		.loc 1 148 5 view .LVU226
ARM GAS  /var/folders/1c/r153ml_17wn3q6lsykf2p9y00000gn/T//ccFaxmsz.s 			page 18


 149:../DaisySP/DaisySP-LGPL/Source/Effects/reverbsc.cpp ****     ReverbScDl *lp;
 663              		.loc 1 149 5 view .LVU227
 150:../DaisySP/DaisySP-LGPL/Source/Effects/reverbsc.cpp ****     int         read_pos;
 664              		.loc 1 150 5 view .LVU228
 151:../DaisySP/DaisySP-LGPL/Source/Effects/reverbsc.cpp ****     uint32_t    n;
 665              		.loc 1 151 5 view .LVU229
 152:../DaisySP/DaisySP-LGPL/Source/Effects/reverbsc.cpp ****     int         buffer_size; /* Local copy */
 666              		.loc 1 152 5 view .LVU230
 153:../DaisySP/DaisySP-LGPL/Source/Effects/reverbsc.cpp ****     float       damp_fact = damp_fact_;
 667              		.loc 1 153 5 view .LVU231
 154:../DaisySP/DaisySP-LGPL/Source/Effects/reverbsc.cpp **** 
 155:../DaisySP/DaisySP-LGPL/Source/Effects/reverbsc.cpp ****     //if (init_done_ <= 0) return REVSC_NOT_OK;
 156:../DaisySP/DaisySP-LGPL/Source/Effects/reverbsc.cpp ****     if(init_done_ <= 0)
 668              		.loc 1 156 5 view .LVU232
 146:../DaisySP/DaisySP-LGPL/Source/Effects/reverbsc.cpp ****     float       a_in_l, a_in_r, a_out_l, a_out_r;
 669              		.loc 1 146 1 is_stmt 0 view .LVU233
 670 0000 F0B5     		push	{r4, r5, r6, r7, lr}
 671              		.cfi_def_cfa_offset 20
 672              		.cfi_offset 4, -20
 673              		.cfi_offset 5, -16
 674              		.cfi_offset 6, -12
 675              		.cfi_offset 7, -8
 676              		.cfi_offset 14, -4
 677              		.loc 1 156 5 view .LVU234
 678 0002 046A     		ldr	r4, [r0, #32]
 146:../DaisySP/DaisySP-LGPL/Source/Effects/reverbsc.cpp ****     float       a_in_l, a_in_r, a_out_l, a_out_r;
 679              		.loc 1 146 1 view .LVU235
 680 0004 83B0     		sub	sp, sp, #12
 681              		.cfi_def_cfa_offset 32
 682              		.loc 1 156 5 view .LVU236
 683 0006 002C     		cmp	r4, #0
 684 0008 40F32081 		ble	.L54
 157:../DaisySP/DaisySP-LGPL/Source/Effects/reverbsc.cpp ****         return REVSC_NOT_OK;
 158:../DaisySP/DaisySP-LGPL/Source/Effects/reverbsc.cpp **** 
 159:../DaisySP/DaisySP-LGPL/Source/Effects/reverbsc.cpp ****     /* calculate tone filter coefficient if frequency changed */
 160:../DaisySP/DaisySP-LGPL/Source/Effects/reverbsc.cpp ****     if(lpfreq_ != prv_lpfreq_)
 685              		.loc 1 160 8 view .LVU237
 686 000c D0ED017A 		vldr.32	s15, [r0, #4]
 687 0010 1F46     		mov	r7, r3
 688              		.loc 1 160 5 view .LVU238
 689 0012 90ED077A 		vldr.32	s14, [r0, #28]
 690 0016 0E46     		mov	r6, r1
 691 0018 0546     		mov	r5, r0
 692              		.loc 1 160 5 is_stmt 1 view .LVU239
 693 001a F4EE477A 		vcmp.f32	s15, s14
 694 001e F1EE10FA 		vmrs	APSR_nzcv, FPSCR
 695 0022 40F0A880 		bne	.L30
 153:../DaisySP/DaisySP-LGPL/Source/Effects/reverbsc.cpp **** 
 696              		.loc 1 153 17 is_stmt 0 view .LVU240
 697 0026 90ED061A 		vldr.32	s2, [r0, #24]
 698              	.LVL35:
 699              	.L31:
 161:../DaisySP/DaisySP-LGPL/Source/Effects/reverbsc.cpp ****     {
 162:../DaisySP/DaisySP-LGPL/Source/Effects/reverbsc.cpp ****         prv_lpfreq_ = lpfreq_;
 163:../DaisySP/DaisySP-LGPL/Source/Effects/reverbsc.cpp ****         damp_fact
 164:../DaisySP/DaisySP-LGPL/Source/Effects/reverbsc.cpp ****             = 2.0f - cosf(prv_lpfreq_ * (2.0f * (float)M_PI) / sample_rate_);
 165:../DaisySP/DaisySP-LGPL/Source/Effects/reverbsc.cpp ****         damp_fact = damp_fact_
ARM GAS  /var/folders/1c/r153ml_17wn3q6lsykf2p9y00000gn/T//ccFaxmsz.s 			page 19


 166:../DaisySP/DaisySP-LGPL/Source/Effects/reverbsc.cpp ****             = damp_fact - sqrtf(damp_fact * damp_fact - 1.0f);
 167:../DaisySP/DaisySP-LGPL/Source/Effects/reverbsc.cpp ****     }
 168:../DaisySP/DaisySP-LGPL/Source/Effects/reverbsc.cpp **** 
 169:../DaisySP/DaisySP-LGPL/Source/Effects/reverbsc.cpp ****     /* calculate "resultant junction pressure" and mix to input signals */
 170:../DaisySP/DaisySP-LGPL/Source/Effects/reverbsc.cpp **** 
 171:../DaisySP/DaisySP-LGPL/Source/Effects/reverbsc.cpp ****     a_in_l = a_out_l = a_out_r = 0.0;
 700              		.loc 1 171 5 is_stmt 1 view .LVU241
 172:../DaisySP/DaisySP-LGPL/Source/Effects/reverbsc.cpp ****     for(n = 0; n < 8; n++)
 701              		.loc 1 172 5 view .LVU242
 702              		.loc 1 172 18 discriminator 1 view .LVU243
 703 002a 2C46     		mov	r4, r5
 171:../DaisySP/DaisySP-LGPL/Source/Effects/reverbsc.cpp ****     for(n = 0; n < 8; n++)
 704              		.loc 1 171 12 is_stmt 0 view .LVU244
 705 002c DFED907A 		vldr.32	s15, .L65+8
 706 0030 05F5A070 		add	r0, r5, #320
 146:../DaisySP/DaisySP-LGPL/Source/Effects/reverbsc.cpp ****     float       a_in_l, a_in_r, a_out_l, a_out_r;
 707              		.loc 1 146 1 view .LVU245
 708 0034 2B46     		mov	r3, r5
 709              	.LVL36:
 710              	.L35:
 173:../DaisySP/DaisySP-LGPL/Source/Effects/reverbsc.cpp ****     {
 174:../DaisySP/DaisySP-LGPL/Source/Effects/reverbsc.cpp ****         a_in_l += delay_lines_[n].filter_state;
 711              		.loc 1 174 9 is_stmt 1 view .LVU246
 712              		.loc 1 174 16 is_stmt 0 view .LVU247
 713 0036 93ED117A 		vldr.32	s14, [r3, #68]
 172:../DaisySP/DaisySP-LGPL/Source/Effects/reverbsc.cpp ****     {
 714              		.loc 1 172 18 discriminator 1 view .LVU248
 715 003a 2833     		adds	r3, r3, #40
 716 003c 9842     		cmp	r0, r3
 717              		.loc 1 174 16 view .LVU249
 718 003e 77EE877A 		vadd.f32	s15, s15, s14
 719              	.LVL37:
 172:../DaisySP/DaisySP-LGPL/Source/Effects/reverbsc.cpp ****     {
 720              		.loc 1 172 5 is_stmt 1 discriminator 3 view .LVU250
 172:../DaisySP/DaisySP-LGPL/Source/Effects/reverbsc.cpp ****     {
 721              		.loc 1 172 18 discriminator 1 view .LVU251
 722 0042 F8D1     		bne	.L35
 175:../DaisySP/DaisySP-LGPL/Source/Effects/reverbsc.cpp ****     }
 176:../DaisySP/DaisySP-LGPL/Source/Effects/reverbsc.cpp ****     a_in_l *= kJpScale;
 723              		.loc 1 176 5 view .LVU252
 724              	.LVL38:
 177:../DaisySP/DaisySP-LGPL/Source/Effects/reverbsc.cpp ****     a_in_r = a_in_l + in2;
 725              		.loc 1 177 5 view .LVU253
 726              		.loc 1 177 12 is_stmt 0 view .LVU254
 727 0044 B5EE007A 		vmov.f32	s14, #2.5e-1
 728 0048 92ED000A 		vldr.32	s0, [r2]
 178:../DaisySP/DaisySP-LGPL/Source/Effects/reverbsc.cpp ****     a_in_l = a_in_l + in1;
 729              		.loc 1 178 12 view .LVU255
 730 004c D6ED000A 		vldr.32	s1, [r6]
 179:../DaisySP/DaisySP-LGPL/Source/Effects/reverbsc.cpp **** 
 180:../DaisySP/DaisySP-LGPL/Source/Effects/reverbsc.cpp ****     /* loop through all delay lines */
 181:../DaisySP/DaisySP-LGPL/Source/Effects/reverbsc.cpp **** 
 182:../DaisySP/DaisySP-LGPL/Source/Effects/reverbsc.cpp ****     for(n = 0; n < 8; n++)
 731              		.loc 1 182 11 view .LVU256
 732 0050 0022     		movs	r2, #0
 171:../DaisySP/DaisySP-LGPL/Source/Effects/reverbsc.cpp ****     for(n = 0; n < 8; n++)
 733              		.loc 1 171 32 view .LVU257
ARM GAS  /var/folders/1c/r153ml_17wn3q6lsykf2p9y00000gn/T//ccFaxmsz.s 			page 20


 734 0052 9FED872A 		vldr.32	s4, .L65+8
 177:../DaisySP/DaisySP-LGPL/Source/Effects/reverbsc.cpp ****     a_in_l = a_in_l + in1;
 735              		.loc 1 177 12 view .LVU258
 736 0056 A7EE870A 		vfma.f32	s0, s15, s14
 737              	.LVL39:
 178:../DaisySP/DaisySP-LGPL/Source/Effects/reverbsc.cpp **** 
 738              		.loc 1 178 5 is_stmt 1 view .LVU259
 178:../DaisySP/DaisySP-LGPL/Source/Effects/reverbsc.cpp **** 
 739              		.loc 1 178 12 is_stmt 0 view .LVU260
 740 005a E7EE870A 		vfma.f32	s1, s15, s14
 741              	.LVL40:
 742              		.loc 1 182 5 is_stmt 1 view .LVU261
 743              		.loc 1 182 18 discriminator 1 view .LVU262
 171:../DaisySP/DaisySP-LGPL/Source/Effects/reverbsc.cpp ****     for(n = 0; n < 8; n++)
 744              		.loc 1 171 22 is_stmt 0 view .LVU263
 745 005e F0EE421A 		vmov.f32	s3, s4
 746              	.LVL41:
 747              	.L53:
 183:../DaisySP/DaisySP-LGPL/Source/Effects/reverbsc.cpp ****     {
 184:../DaisySP/DaisySP-LGPL/Source/Effects/reverbsc.cpp ****         lp          = &delay_lines_[n];
 748              		.loc 1 184 9 is_stmt 1 view .LVU264
 185:../DaisySP/DaisySP-LGPL/Source/Effects/reverbsc.cpp ****         buffer_size = lp->buffer_size;
 749              		.loc 1 185 9 view .LVU265
 186:../DaisySP/DaisySP-LGPL/Source/Effects/reverbsc.cpp **** 
 187:../DaisySP/DaisySP-LGPL/Source/Effects/reverbsc.cpp ****         /* send input signal and feedback to delay line */
 188:../DaisySP/DaisySP-LGPL/Source/Effects/reverbsc.cpp **** 
 189:../DaisySP/DaisySP-LGPL/Source/Effects/reverbsc.cpp ****         lp->buf[lp->write_pos]
 750              		.loc 1 189 21 is_stmt 0 view .LVU266
 751 0062 616A     		ldr	r1, [r4, #36]
 190:../DaisySP/DaisySP-LGPL/Source/Effects/reverbsc.cpp ****             = (float)((n & 1 ? a_in_r : a_in_l) - lp->filter_state);
 752              		.loc 1 190 30 discriminator 1 view .LVU267
 753 0064 12F0010E 		ands	lr, r2, #1
 185:../DaisySP/DaisySP-LGPL/Source/Effects/reverbsc.cpp ****         buffer_size = lp->buffer_size;
 754              		.loc 1 185 21 view .LVU268
 755 0068 A36A     		ldr	r3, [r4, #40]
 756              	.LVL42:
 189:../DaisySP/DaisySP-LGPL/Source/Effects/reverbsc.cpp ****             = (float)((n & 1 ? a_in_r : a_in_l) - lp->filter_state);
 757              		.loc 1 189 9 is_stmt 1 view .LVU269
 191:../DaisySP/DaisySP-LGPL/Source/Effects/reverbsc.cpp ****         if(++lp->write_pos >= buffer_size)
 758              		.loc 1 191 12 is_stmt 0 view .LVU270
 759 006a 01F10106 		add	r6, r1, #1
 190:../DaisySP/DaisySP-LGPL/Source/Effects/reverbsc.cpp ****             = (float)((n & 1 ? a_in_r : a_in_l) - lp->filter_state);
 760              		.loc 1 190 49 discriminator 4 view .LVU271
 761 006e 94ED117A 		vldr.32	s14, [r4, #68]
 189:../DaisySP/DaisySP-LGPL/Source/Effects/reverbsc.cpp ****             = (float)((n & 1 ? a_in_r : a_in_l) - lp->filter_state);
 762              		.loc 1 189 13 view .LVU272
 763 0072 A06C     		ldr	r0, [r4, #72]
 190:../DaisySP/DaisySP-LGPL/Source/Effects/reverbsc.cpp ****             = (float)((n & 1 ? a_in_r : a_in_l) - lp->filter_state);
 764              		.loc 1 190 30 discriminator 1 view .LVU273
 765 0074 40FE807A 		vseleq.f32	s15, s1, s0
 192:../DaisySP/DaisySP-LGPL/Source/Effects/reverbsc.cpp ****         {
 193:../DaisySP/DaisySP-LGPL/Source/Effects/reverbsc.cpp ****             lp->write_pos -= buffer_size;
 194:../DaisySP/DaisySP-LGPL/Source/Effects/reverbsc.cpp ****         }
 195:../DaisySP/DaisySP-LGPL/Source/Effects/reverbsc.cpp **** 
 196:../DaisySP/DaisySP-LGPL/Source/Effects/reverbsc.cpp ****         /* read from delay line with cubic interpolation */
 197:../DaisySP/DaisySP-LGPL/Source/Effects/reverbsc.cpp **** 
 198:../DaisySP/DaisySP-LGPL/Source/Effects/reverbsc.cpp ****         if(lp->read_pos_frac >= DELAYPOS_SCALE)
ARM GAS  /var/folders/1c/r153ml_17wn3q6lsykf2p9y00000gn/T//ccFaxmsz.s 			page 21


 766              		.loc 1 198 16 view .LVU274
 767 0078 D4F830C0 		ldr	ip, [r4, #48]
 191:../DaisySP/DaisySP-LGPL/Source/Effects/reverbsc.cpp ****         if(++lp->write_pos >= buffer_size)
 768              		.loc 1 191 9 view .LVU275
 769 007c 9E42     		cmp	r6, r3
 190:../DaisySP/DaisySP-LGPL/Source/Effects/reverbsc.cpp ****         if(++lp->write_pos >= buffer_size)
 770              		.loc 1 190 49 discriminator 4 view .LVU276
 771 007e 77EEC77A 		vsub.f32	s15, s15, s14
 191:../DaisySP/DaisySP-LGPL/Source/Effects/reverbsc.cpp ****         if(++lp->write_pos >= buffer_size)
 772              		.loc 1 191 9 is_stmt 1 view .LVU277
 193:../DaisySP/DaisySP-LGPL/Source/Effects/reverbsc.cpp ****         }
 773              		.loc 1 193 13 view .LVU278
 189:../DaisySP/DaisySP-LGPL/Source/Effects/reverbsc.cpp ****             = (float)((n & 1 ? a_in_r : a_in_l) - lp->filter_state);
 774              		.loc 1 189 30 is_stmt 0 view .LVU279
 775 0082 00EB8101 		add	r1, r0, r1, lsl #2
 193:../DaisySP/DaisySP-LGPL/Source/Effects/reverbsc.cpp ****         }
 776              		.loc 1 193 27 view .LVU280
 777 0086 A8BF     		it	ge
 778 0088 F61A     		subge	r6, r6, r3
 779              		.loc 1 198 9 view .LVU281
 780 008a BCF1805F 		cmp	ip, #268435456
 190:../DaisySP/DaisySP-LGPL/Source/Effects/reverbsc.cpp ****         if(++lp->write_pos >= buffer_size)
 781              		.loc 1 190 13 discriminator 4 view .LVU282
 782 008e C1ED007A 		vstr.32	s15, [r1]
 199:../DaisySP/DaisySP-LGPL/Source/Effects/reverbsc.cpp ****         {
 200:../DaisySP/DaisySP-LGPL/Source/Effects/reverbsc.cpp ****             lp->read_pos += (lp->read_pos_frac >> DELAYPOS_SHIFT);
 783              		.loc 1 200 26 view .LVU283
 784 0092 E16A     		ldr	r1, [r4, #44]
 191:../DaisySP/DaisySP-LGPL/Source/Effects/reverbsc.cpp ****         {
 785              		.loc 1 191 28 view .LVU284
 786 0094 6662     		str	r6, [r4, #36]
 198:../DaisySP/DaisySP-LGPL/Source/Effects/reverbsc.cpp ****         {
 787              		.loc 1 198 9 is_stmt 1 view .LVU285
 788 0096 06DB     		blt	.L38
 789              		.loc 1 200 13 view .LVU286
 201:../DaisySP/DaisySP-LGPL/Source/Effects/reverbsc.cpp ****             lp->read_pos_frac &= DELAYPOS_MASK;
 790              		.loc 1 201 31 is_stmt 0 view .LVU287
 791 0098 2CF07046 		bic	r6, ip, #-268435456
 200:../DaisySP/DaisySP-LGPL/Source/Effects/reverbsc.cpp ****             lp->read_pos_frac &= DELAYPOS_MASK;
 792              		.loc 1 200 26 view .LVU288
 793 009c 01EB2C71 		add	r1, r1, ip, asr #28
 794 00a0 B446     		mov	ip, r6
 795 00a2 C4E90B16 		strd	r1, r6, [r4, #44]
 796              		.loc 1 201 13 is_stmt 1 view .LVU289
 797              	.L38:
 202:../DaisySP/DaisySP-LGPL/Source/Effects/reverbsc.cpp ****         }
 203:../DaisySP/DaisySP-LGPL/Source/Effects/reverbsc.cpp ****         if(lp->read_pos >= buffer_size)
 798              		.loc 1 203 9 view .LVU290
 799 00a6 9942     		cmp	r1, r3
 800 00a8 01DB     		blt	.L39
 204:../DaisySP/DaisySP-LGPL/Source/Effects/reverbsc.cpp ****             lp->read_pos -= buffer_size;
 801              		.loc 1 204 13 view .LVU291
 802              		.loc 1 204 26 is_stmt 0 view .LVU292
 803 00aa C91A     		subs	r1, r1, r3
 804 00ac E162     		str	r1, [r4, #44]
 805              	.L39:
 205:../DaisySP/DaisySP-LGPL/Source/Effects/reverbsc.cpp ****         read_pos = lp->read_pos;
ARM GAS  /var/folders/1c/r153ml_17wn3q6lsykf2p9y00000gn/T//ccFaxmsz.s 			page 22


 806              		.loc 1 205 9 is_stmt 1 view .LVU293
 206:../DaisySP/DaisySP-LGPL/Source/Effects/reverbsc.cpp ****         frac     = (float)lp->read_pos_frac * (1.0 / (float)DELAYPOS_SCALE);
 807              		.loc 1 206 9 view .LVU294
 207:../DaisySP/DaisySP-LGPL/Source/Effects/reverbsc.cpp **** 
 208:../DaisySP/DaisySP-LGPL/Source/Effects/reverbsc.cpp ****         /* calculate interpolation coefficients */
 209:../DaisySP/DaisySP-LGPL/Source/Effects/reverbsc.cpp **** 
 210:../DaisySP/DaisySP-LGPL/Source/Effects/reverbsc.cpp ****         a2 = frac * frac;
 211:../DaisySP/DaisySP-LGPL/Source/Effects/reverbsc.cpp ****         a2 -= 1.0;
 212:../DaisySP/DaisySP-LGPL/Source/Effects/reverbsc.cpp ****         a2 *= (1.0 / 6.0);
 808              		.loc 1 212 12 is_stmt 0 view .LVU295
 809 00ae BFEE007A 		vmov.f32	s14, #-1.0e+0
 206:../DaisySP/DaisySP-LGPL/Source/Effects/reverbsc.cpp ****         frac     = (float)lp->read_pos_frac * (1.0 / (float)DELAYPOS_SCALE);
 810              		.loc 1 206 18 view .LVU296
 811 00b2 05EE10CA 		vmov	s10, ip	@ int
 213:../DaisySP/DaisySP-LGPL/Source/Effects/reverbsc.cpp ****         a1 = frac;
 214:../DaisySP/DaisySP-LGPL/Source/Effects/reverbsc.cpp ****         a1 += 1.0;
 812              		.loc 1 214 12 view .LVU297
 813 00b6 F7EE005A 		vmov.f32	s11, #1.0e+0
 215:../DaisySP/DaisySP-LGPL/Source/Effects/reverbsc.cpp ****         a1 *= 0.5;
 216:../DaisySP/DaisySP-LGPL/Source/Effects/reverbsc.cpp ****         am1 = a1 - 1.0;
 217:../DaisySP/DaisySP-LGPL/Source/Effects/reverbsc.cpp ****         a0  = 3.0 * a2;
 218:../DaisySP/DaisySP-LGPL/Source/Effects/reverbsc.cpp ****         a1 -= a0;
 219:../DaisySP/DaisySP-LGPL/Source/Effects/reverbsc.cpp ****         am1 -= a2;
 220:../DaisySP/DaisySP-LGPL/Source/Effects/reverbsc.cpp ****         a0 -= frac;
 221:../DaisySP/DaisySP-LGPL/Source/Effects/reverbsc.cpp **** 
 222:../DaisySP/DaisySP-LGPL/Source/Effects/reverbsc.cpp ****         /* read four samples for interpolation */
 223:../DaisySP/DaisySP-LGPL/Source/Effects/reverbsc.cpp **** 
 224:../DaisySP/DaisySP-LGPL/Source/Effects/reverbsc.cpp ****         if(read_pos > 0 && read_pos < (buffer_size - 2))
 814              		.loc 1 224 9 view .LVU298
 815 00ba 0029     		cmp	r1, #0
 206:../DaisySP/DaisySP-LGPL/Source/Effects/reverbsc.cpp **** 
 816              		.loc 1 206 18 view .LVU299
 817 00bc BAEEC25A 		vcvt.f32.s32	s10, s10, #28
 818              	.LVL43:
 210:../DaisySP/DaisySP-LGPL/Source/Effects/reverbsc.cpp ****         a2 -= 1.0;
 819              		.loc 1 210 9 is_stmt 1 view .LVU300
 211:../DaisySP/DaisySP-LGPL/Source/Effects/reverbsc.cpp ****         a2 *= (1.0 / 6.0);
 820              		.loc 1 211 9 view .LVU301
 212:../DaisySP/DaisySP-LGPL/Source/Effects/reverbsc.cpp ****         a1 = frac;
 821              		.loc 1 212 9 view .LVU302
 212:../DaisySP/DaisySP-LGPL/Source/Effects/reverbsc.cpp ****         a1 = frac;
 822              		.loc 1 212 12 is_stmt 0 view .LVU303
 823 00c0 B0EE476A 		vmov.f32	s12, s14
 216:../DaisySP/DaisySP-LGPL/Source/Effects/reverbsc.cpp ****         a0  = 3.0 * a2;
 824              		.loc 1 216 13 view .LVU304
 825 00c4 F6EE004A 		vmov.f32	s9, #5.0e-1
 214:../DaisySP/DaisySP-LGPL/Source/Effects/reverbsc.cpp ****         a1 *= 0.5;
 826              		.loc 1 214 12 view .LVU305
 827 00c8 75EE255A 		vadd.f32	s11, s10, s11
 212:../DaisySP/DaisySP-LGPL/Source/Effects/reverbsc.cpp ****         a1 = frac;
 828              		.loc 1 212 12 view .LVU306
 829 00cc A5EE056A 		vfma.f32	s12, s10, s10
 217:../DaisySP/DaisySP-LGPL/Source/Effects/reverbsc.cpp ****         a1 -= a0;
 830              		.loc 1 217 13 view .LVU307
 831 00d0 F0EE087A 		vmov.f32	s15, #3.0e+0
 216:../DaisySP/DaisySP-LGPL/Source/Effects/reverbsc.cpp ****         a0  = 3.0 * a2;
 832              		.loc 1 216 13 view .LVU308
ARM GAS  /var/folders/1c/r153ml_17wn3q6lsykf2p9y00000gn/T//ccFaxmsz.s 			page 23


 833 00d4 A5EEA47A 		vfma.f32	s14, s11, s9
 212:../DaisySP/DaisySP-LGPL/Source/Effects/reverbsc.cpp ****         a1 = frac;
 834              		.loc 1 212 12 view .LVU309
 835 00d8 9FED633B 		vldr.64	d3, .L65
 836 00dc B7EEC66A 		vcvt.f64.f32	d6, s12
 837 00e0 26EE036B 		vmul.f64	d6, d6, d3
 838 00e4 B7EEC66B 		vcvt.f32.f64	s12, d6
 839              	.LVL44:
 213:../DaisySP/DaisySP-LGPL/Source/Effects/reverbsc.cpp ****         a1 += 1.0;
 840              		.loc 1 213 9 is_stmt 1 view .LVU310
 214:../DaisySP/DaisySP-LGPL/Source/Effects/reverbsc.cpp ****         a1 *= 0.5;
 841              		.loc 1 214 9 view .LVU311
 215:../DaisySP/DaisySP-LGPL/Source/Effects/reverbsc.cpp ****         am1 = a1 - 1.0;
 842              		.loc 1 215 9 view .LVU312
 216:../DaisySP/DaisySP-LGPL/Source/Effects/reverbsc.cpp ****         a0  = 3.0 * a2;
 843              		.loc 1 216 9 view .LVU313
 217:../DaisySP/DaisySP-LGPL/Source/Effects/reverbsc.cpp ****         a1 -= a0;
 844              		.loc 1 217 9 view .LVU314
 217:../DaisySP/DaisySP-LGPL/Source/Effects/reverbsc.cpp ****         a1 -= a0;
 845              		.loc 1 217 13 is_stmt 0 view .LVU315
 846 00e8 66EE277A 		vmul.f32	s15, s12, s15
 847              	.LVL45:
 218:../DaisySP/DaisySP-LGPL/Source/Effects/reverbsc.cpp ****         am1 -= a2;
 848              		.loc 1 218 9 is_stmt 1 view .LVU316
 219:../DaisySP/DaisySP-LGPL/Source/Effects/reverbsc.cpp ****         a0 -= frac;
 849              		.loc 1 219 13 is_stmt 0 view .LVU317
 850 00ec 77EE466A 		vsub.f32	s13, s14, s12
 218:../DaisySP/DaisySP-LGPL/Source/Effects/reverbsc.cpp ****         am1 -= a2;
 851              		.loc 1 218 12 view .LVU318
 852 00f0 F0EE673A 		vmov.f32	s7, s15
 220:../DaisySP/DaisySP-LGPL/Source/Effects/reverbsc.cpp **** 
 853              		.loc 1 220 12 view .LVU319
 854 00f4 77EEC57A 		vsub.f32	s15, s15, s10
 855              	.LVL46:
 218:../DaisySP/DaisySP-LGPL/Source/Effects/reverbsc.cpp ****         am1 -= a2;
 856              		.loc 1 218 12 view .LVU320
 857 00f8 D5EEA43A 		vfnms.f32	s7, s11, s9
 858              	.LVL47:
 219:../DaisySP/DaisySP-LGPL/Source/Effects/reverbsc.cpp ****         a0 -= frac;
 859              		.loc 1 219 9 is_stmt 1 view .LVU321
 220:../DaisySP/DaisySP-LGPL/Source/Effects/reverbsc.cpp **** 
 860              		.loc 1 220 9 view .LVU322
 861              		.loc 1 224 9 view .LVU323
 862 00fc 67DD     		ble	.L40
 863              		.loc 1 224 52 is_stmt 0 discriminator 1 view .LVU324
 864 00fe 9E1E     		subs	r6, r3, #2
 865              		.loc 1 224 25 discriminator 1 view .LVU325
 866 0100 8E42     		cmp	r6, r1
 867 0102 40F38380 		ble	.L41
 225:../DaisySP/DaisySP-LGPL/Source/Effects/reverbsc.cpp ****         {
 226:../DaisySP/DaisySP-LGPL/Source/Effects/reverbsc.cpp ****             vm1 = (float)(lp->buf[read_pos - 1]);
 868              		.loc 1 226 13 is_stmt 1 view .LVU326
 869              		.loc 1 226 44 is_stmt 0 view .LVU327
 870 0106 0023     		movs	r3, #0
 871              	.LVL48:
 872              		.loc 1 226 44 view .LVU328
 873 0108 CB18     		adds	r3, r1, r3
ARM GAS  /var/folders/1c/r153ml_17wn3q6lsykf2p9y00000gn/T//ccFaxmsz.s 			page 24


 874              		.loc 1 226 17 view .LVU329
 875 010a 00EB8303 		add	r3, r0, r3, lsl #2
 876 010e 53ED012A 		vldr.32	s5, [r3, #-4]
 877              	.LVL49:
 227:../DaisySP/DaisySP-LGPL/Source/Effects/reverbsc.cpp ****             v0  = (float)(lp->buf[read_pos]);
 878              		.loc 1 227 13 is_stmt 1 view .LVU330
 879              		.loc 1 227 17 is_stmt 0 view .LVU331
 880 0112 D3ED005A 		vldr.32	s11, [r3, #0]
 881              	.LVL50:
 228:../DaisySP/DaisySP-LGPL/Source/Effects/reverbsc.cpp ****             v1  = (float)(lp->buf[read_pos + 1]);
 882              		.loc 1 228 13 is_stmt 1 view .LVU332
 883              		.loc 1 228 17 is_stmt 0 view .LVU333
 884 0116 93ED013A 		vldr.32	s6, [r3, #4]
 885              	.LVL51:
 229:../DaisySP/DaisySP-LGPL/Source/Effects/reverbsc.cpp ****             v2  = (float)(lp->buf[read_pos + 2]);
 886              		.loc 1 229 13 is_stmt 1 view .LVU334
 887              		.loc 1 229 17 is_stmt 0 view .LVU335
 888 011a 93ED024A 		vldr.32	s8, [r3, #8]
 889              	.LVL52:
 890              	.L42:
 230:../DaisySP/DaisySP-LGPL/Source/Effects/reverbsc.cpp ****         }
 231:../DaisySP/DaisySP-LGPL/Source/Effects/reverbsc.cpp ****         else
 232:../DaisySP/DaisySP-LGPL/Source/Effects/reverbsc.cpp ****         {
 233:../DaisySP/DaisySP-LGPL/Source/Effects/reverbsc.cpp ****             /* at buffer wrap-around, need to check index */
 234:../DaisySP/DaisySP-LGPL/Source/Effects/reverbsc.cpp **** 
 235:../DaisySP/DaisySP-LGPL/Source/Effects/reverbsc.cpp ****             if(--read_pos < 0)
 236:../DaisySP/DaisySP-LGPL/Source/Effects/reverbsc.cpp ****                 read_pos += buffer_size;
 237:../DaisySP/DaisySP-LGPL/Source/Effects/reverbsc.cpp ****             vm1 = (float)lp->buf[read_pos];
 238:../DaisySP/DaisySP-LGPL/Source/Effects/reverbsc.cpp ****             if(++read_pos >= buffer_size)
 239:../DaisySP/DaisySP-LGPL/Source/Effects/reverbsc.cpp ****                 read_pos -= buffer_size;
 240:../DaisySP/DaisySP-LGPL/Source/Effects/reverbsc.cpp ****             v0 = (float)lp->buf[read_pos];
 241:../DaisySP/DaisySP-LGPL/Source/Effects/reverbsc.cpp ****             if(++read_pos >= buffer_size)
 242:../DaisySP/DaisySP-LGPL/Source/Effects/reverbsc.cpp ****                 read_pos -= buffer_size;
 243:../DaisySP/DaisySP-LGPL/Source/Effects/reverbsc.cpp ****             v1 = (float)lp->buf[read_pos];
 244:../DaisySP/DaisySP-LGPL/Source/Effects/reverbsc.cpp ****             if(++read_pos >= buffer_size)
 245:../DaisySP/DaisySP-LGPL/Source/Effects/reverbsc.cpp ****                 read_pos -= buffer_size;
 246:../DaisySP/DaisySP-LGPL/Source/Effects/reverbsc.cpp ****             v2 = (float)lp->buf[read_pos];
 247:../DaisySP/DaisySP-LGPL/Source/Effects/reverbsc.cpp ****         }
 248:../DaisySP/DaisySP-LGPL/Source/Effects/reverbsc.cpp ****         v0 = (am1 * vm1 + a0 * v0 + a1 * v1 + a2 * v2) * frac + v0;
 891              		.loc 1 248 9 is_stmt 1 view .LVU336
 892              		.loc 1 248 30 is_stmt 0 view .LVU337
 893 011e 65EEA77A 		vmul.f32	s15, s11, s15
 894              	.LVL53:
 249:../DaisySP/DaisySP-LGPL/Source/Effects/reverbsc.cpp **** 
 250:../DaisySP/DaisySP-LGPL/Source/Effects/reverbsc.cpp ****         /* update buffer read position */
 251:../DaisySP/DaisySP-LGPL/Source/Effects/reverbsc.cpp **** 
 252:../DaisySP/DaisySP-LGPL/Source/Effects/reverbsc.cpp ****         lp->read_pos_frac += lp->read_pos_frac_inc;
 253:../DaisySP/DaisySP-LGPL/Source/Effects/reverbsc.cpp **** 
 254:../DaisySP/DaisySP-LGPL/Source/Effects/reverbsc.cpp ****         /* apply feedback gain and lowpass filter */
 255:../DaisySP/DaisySP-LGPL/Source/Effects/reverbsc.cpp **** 
 256:../DaisySP/DaisySP-LGPL/Source/Effects/reverbsc.cpp ****         v0 *= (float)feedback_;
 257:../DaisySP/DaisySP-LGPL/Source/Effects/reverbsc.cpp ****         v0               = (lp->filter_state - v0) * damp_fact + v0;
 895              		.loc 1 257 52 view .LVU338
 896 0122 94ED117A 		vldr.32	s14, [r4, #68]
 256:../DaisySP/DaisySP-LGPL/Source/Effects/reverbsc.cpp ****         v0               = (lp->filter_state - v0) * damp_fact + v0;
 897              		.loc 1 256 22 view .LVU339
 898 0126 D5ED004A 		vldr.32	s9, [r5]
ARM GAS  /var/folders/1c/r153ml_17wn3q6lsykf2p9y00000gn/T//ccFaxmsz.s 			page 25


 252:../DaisySP/DaisySP-LGPL/Source/Effects/reverbsc.cpp **** 
 899              		.loc 1 252 27 view .LVU340
 900 012a 636B     		ldr	r3, [r4, #52]
 248:../DaisySP/DaisySP-LGPL/Source/Effects/reverbsc.cpp **** 
 901              		.loc 1 248 45 view .LVU341
 902 012c E2EEA67A 		vfma.f32	s15, s5, s13
 248:../DaisySP/DaisySP-LGPL/Source/Effects/reverbsc.cpp **** 
 903              		.loc 1 248 12 view .LVU342
 904 0130 F0EE656A 		vmov.f32	s13, s11
 905              	.LVL54:
 252:../DaisySP/DaisySP-LGPL/Source/Effects/reverbsc.cpp **** 
 906              		.loc 1 252 27 view .LVU343
 907 0134 6344     		add	r3, r3, ip
 908 0136 2363     		str	r3, [r4, #48]
 258:../DaisySP/DaisySP-LGPL/Source/Effects/reverbsc.cpp ****         lp->filter_state = v0;
 259:../DaisySP/DaisySP-LGPL/Source/Effects/reverbsc.cpp **** 
 260:../DaisySP/DaisySP-LGPL/Source/Effects/reverbsc.cpp ****         /* mix to output */
 261:../DaisySP/DaisySP-LGPL/Source/Effects/reverbsc.cpp **** 
 262:../DaisySP/DaisySP-LGPL/Source/Effects/reverbsc.cpp ****         if(n & 1)
 263:../DaisySP/DaisySP-LGPL/Source/Effects/reverbsc.cpp ****         {
 264:../DaisySP/DaisySP-LGPL/Source/Effects/reverbsc.cpp ****             a_out_r += v0;
 265:../DaisySP/DaisySP-LGPL/Source/Effects/reverbsc.cpp ****         }
 266:../DaisySP/DaisySP-LGPL/Source/Effects/reverbsc.cpp ****         else
 267:../DaisySP/DaisySP-LGPL/Source/Effects/reverbsc.cpp ****         {
 268:../DaisySP/DaisySP-LGPL/Source/Effects/reverbsc.cpp ****             a_out_l += v0;
 269:../DaisySP/DaisySP-LGPL/Source/Effects/reverbsc.cpp ****         }
 270:../DaisySP/DaisySP-LGPL/Source/Effects/reverbsc.cpp **** 
 271:../DaisySP/DaisySP-LGPL/Source/Effects/reverbsc.cpp ****         /* start next random line segment if current one has reached endpoint */
 272:../DaisySP/DaisySP-LGPL/Source/Effects/reverbsc.cpp **** 
 273:../DaisySP/DaisySP-LGPL/Source/Effects/reverbsc.cpp ****         if(--(lp->rand_line_cnt) <= 0)
 909              		.loc 1 273 12 view .LVU344
 910 0138 236C     		ldr	r3, [r4, #64]
 248:../DaisySP/DaisySP-LGPL/Source/Effects/reverbsc.cpp **** 
 911              		.loc 1 248 45 view .LVU345
 912 013a E3EE237A 		vfma.f32	s15, s6, s7
 913 013e E4EE067A 		vfma.f32	s15, s8, s12
 248:../DaisySP/DaisySP-LGPL/Source/Effects/reverbsc.cpp **** 
 914              		.loc 1 248 12 view .LVU346
 915 0142 E7EE856A 		vfma.f32	s13, s15, s10
 916              	.LVL55:
 252:../DaisySP/DaisySP-LGPL/Source/Effects/reverbsc.cpp **** 
 917              		.loc 1 252 9 is_stmt 1 view .LVU347
 256:../DaisySP/DaisySP-LGPL/Source/Effects/reverbsc.cpp ****         v0               = (lp->filter_state - v0) * damp_fact + v0;
 918              		.loc 1 256 9 view .LVU348
 257:../DaisySP/DaisySP-LGPL/Source/Effects/reverbsc.cpp ****         lp->filter_state = v0;
 919              		.loc 1 257 9 view .LVU349
 257:../DaisySP/DaisySP-LGPL/Source/Effects/reverbsc.cpp ****         lp->filter_state = v0;
 920              		.loc 1 257 52 is_stmt 0 view .LVU350
 921 0146 F0EE477A 		vmov.f32	s15, s14
 922 014a E4EEE67A 		vfms.f32	s15, s9, s13
 923 014e 67EE817A 		vmul.f32	s15, s15, s2
 257:../DaisySP/DaisySP-LGPL/Source/Effects/reverbsc.cpp ****         lp->filter_state = v0;
 924              		.loc 1 257 26 view .LVU351
 925 0152 E4EEA67A 		vfma.f32	s15, s9, s13
 926              	.LVL56:
 258:../DaisySP/DaisySP-LGPL/Source/Effects/reverbsc.cpp **** 
 927              		.loc 1 258 9 is_stmt 1 view .LVU352
ARM GAS  /var/folders/1c/r153ml_17wn3q6lsykf2p9y00000gn/T//ccFaxmsz.s 			page 26


 258:../DaisySP/DaisySP-LGPL/Source/Effects/reverbsc.cpp **** 
 928              		.loc 1 258 26 is_stmt 0 view .LVU353
 929 0156 C4ED117A 		vstr.32	s15, [r4, #68]
 262:../DaisySP/DaisySP-LGPL/Source/Effects/reverbsc.cpp ****         {
 930              		.loc 1 262 9 is_stmt 1 view .LVU354
 931 015a BEF1000F 		cmp	lr, #0
 932 015e 2ED0     		beq	.L47
 264:../DaisySP/DaisySP-LGPL/Source/Effects/reverbsc.cpp ****         }
 933              		.loc 1 264 13 view .LVU355
 934              		.loc 1 273 12 is_stmt 0 view .LVU356
 935 0160 013B     		subs	r3, r3, #1
 264:../DaisySP/DaisySP-LGPL/Source/Effects/reverbsc.cpp ****         }
 936              		.loc 1 264 21 view .LVU357
 937 0162 32EE272A 		vadd.f32	s4, s4, s15
 938              	.LVL57:
 939              		.loc 1 273 9 is_stmt 1 view .LVU358
 940 0166 002B     		cmp	r3, #0
 941              		.loc 1 273 34 is_stmt 0 view .LVU359
 942 0168 2364     		str	r3, [r4, #64]
 943              		.loc 1 273 9 view .LVU360
 944 016a 51DD     		ble	.L63
 182:../DaisySP/DaisySP-LGPL/Source/Effects/reverbsc.cpp ****     {
 945              		.loc 1 182 5 is_stmt 1 discriminator 2 view .LVU361
 946 016c 0132     		adds	r2, r2, #1
 947              	.LVL58:
 182:../DaisySP/DaisySP-LGPL/Source/Effects/reverbsc.cpp ****     {
 948              		.loc 1 182 18 discriminator 1 view .LVU362
 949 016e 082A     		cmp	r2, #8
 950 0170 56D0     		beq	.L52
 951              	.LVL59:
 952              	.L62:
 182:../DaisySP/DaisySP-LGPL/Source/Effects/reverbsc.cpp ****     {
 953              		.loc 1 182 18 discriminator 1 view .LVU363
 954 0172 2834     		adds	r4, r4, #40
 182:../DaisySP/DaisySP-LGPL/Source/Effects/reverbsc.cpp ****     {
 955              		.loc 1 182 18 is_stmt 0 discriminator 1 view .LVU364
 956 0174 75E7     		b	.L53
 957              	.LVL60:
 958              	.L30:
 162:../DaisySP/DaisySP-LGPL/Source/Effects/reverbsc.cpp ****         damp_fact
 959              		.loc 1 162 9 is_stmt 1 view .LVU365
 164:../DaisySP/DaisySP-LGPL/Source/Effects/reverbsc.cpp ****         damp_fact = damp_fact_
 960              		.loc 1 164 39 is_stmt 0 view .LVU366
 961 0176 9FED3F7A 		vldr.32	s14, .L65+12
 162:../DaisySP/DaisySP-LGPL/Source/Effects/reverbsc.cpp ****         damp_fact
 962              		.loc 1 162 21 view .LVU367
 963 017a C0ED077A 		vstr.32	s15, [r0, #28]
 163:../DaisySP/DaisySP-LGPL/Source/Effects/reverbsc.cpp ****             = 2.0f - cosf(prv_lpfreq_ * (2.0f * (float)M_PI) / sample_rate_);
 964              		.loc 1 163 9 is_stmt 1 view .LVU368
 164:../DaisySP/DaisySP-LGPL/Source/Effects/reverbsc.cpp ****         damp_fact = damp_fact_
 965              		.loc 1 164 39 is_stmt 0 view .LVU369
 966 017e 67EE877A 		vmul.f32	s15, s15, s14
 164:../DaisySP/DaisySP-LGPL/Source/Effects/reverbsc.cpp ****         damp_fact = damp_fact_
 967              		.loc 1 164 26 view .LVU370
 968 0182 90ED050A 		vldr.32	s0, [r0, #20]
 969 0186 0092     		str	r2, [sp]
 970 0188 87EE800A 		vdiv.f32	s0, s15, s0
ARM GAS  /var/folders/1c/r153ml_17wn3q6lsykf2p9y00000gn/T//ccFaxmsz.s 			page 27


 971 018c FFF7FEFF 		bl	cosf
 972              	.LVL61:
 164:../DaisySP/DaisySP-LGPL/Source/Effects/reverbsc.cpp ****         damp_fact = damp_fact_
 973              		.loc 1 164 26 view .LVU371
 974 0190 009A     		ldr	r2, [sp]
 164:../DaisySP/DaisySP-LGPL/Source/Effects/reverbsc.cpp ****         damp_fact = damp_fact_
 975              		.loc 1 164 13 discriminator 1 view .LVU372
 976 0192 B0EE001A 		vmov.f32	s2, #2.0e+0
 166:../DaisySP/DaisySP-LGPL/Source/Effects/reverbsc.cpp ****     }
 977              		.loc 1 166 32 view .LVU373
 978 0196 FFEE007A 		vmov.f32	s15, #-1.0e+0
 164:../DaisySP/DaisySP-LGPL/Source/Effects/reverbsc.cpp ****         damp_fact = damp_fact_
 979              		.loc 1 164 13 discriminator 1 view .LVU374
 980 019a 31EE401A 		vsub.f32	s2, s2, s0
 981              	.LVL62:
 165:../DaisySP/DaisySP-LGPL/Source/Effects/reverbsc.cpp ****             = damp_fact - sqrtf(damp_fact * damp_fact - 1.0f);
 982              		.loc 1 165 9 is_stmt 1 view .LVU375
 166:../DaisySP/DaisySP-LGPL/Source/Effects/reverbsc.cpp ****     }
 983              		.loc 1 166 32 is_stmt 0 view .LVU376
 984 019e E1EE017A 		vfma.f32	s15, s2, s2
 985 01a2 F5EE407A 		vcmp.f32	s15, #0
 986 01a6 B0EE670A 		vmov.f32	s0, s15
 987 01aa F1EE10FA 		vmrs	APSR_nzcv, FPSCR
 988 01ae 50D4     		bmi	.L59
 989              	.LVL63:
 166:../DaisySP/DaisySP-LGPL/Source/Effects/reverbsc.cpp ****     }
 990              		.loc 1 166 32 view .LVU377
 991 01b0 F1EEC07A 		vsqrt.f32	s15, s0
 992              	.LVL64:
 993              	.L34:
 166:../DaisySP/DaisySP-LGPL/Source/Effects/reverbsc.cpp ****     }
 994              		.loc 1 166 25 discriminator 1 view .LVU378
 995 01b4 31EE671A 		vsub.f32	s2, s2, s15
 166:../DaisySP/DaisySP-LGPL/Source/Effects/reverbsc.cpp ****     }
 996              		.loc 1 166 13 discriminator 1 view .LVU379
 997 01b8 85ED061A 		vstr.32	s2, [r5, #24]
 998 01bc 35E7     		b	.L31
 999              	.LVL65:
 1000              	.L47:
 268:../DaisySP/DaisySP-LGPL/Source/Effects/reverbsc.cpp ****         }
 1001              		.loc 1 268 13 is_stmt 1 view .LVU380
 1002              		.loc 1 273 12 is_stmt 0 view .LVU381
 1003 01be 013B     		subs	r3, r3, #1
 268:../DaisySP/DaisySP-LGPL/Source/Effects/reverbsc.cpp ****         }
 1004              		.loc 1 268 21 view .LVU382
 1005 01c0 71EEA71A 		vadd.f32	s3, s3, s15
 1006              	.LVL66:
 1007              		.loc 1 273 9 is_stmt 1 view .LVU383
 1008 01c4 7345     		cmp	r3, lr
 1009              		.loc 1 273 34 is_stmt 0 view .LVU384
 1010 01c6 2364     		str	r3, [r4, #64]
 1011              		.loc 1 273 9 view .LVU385
 1012 01c8 38DD     		ble	.L64
 182:../DaisySP/DaisySP-LGPL/Source/Effects/reverbsc.cpp ****     {
 1013              		.loc 1 182 5 is_stmt 1 discriminator 2 view .LVU386
 1014 01ca 0132     		adds	r2, r2, #1
 1015              	.LVL67:
ARM GAS  /var/folders/1c/r153ml_17wn3q6lsykf2p9y00000gn/T//ccFaxmsz.s 			page 28


 182:../DaisySP/DaisySP-LGPL/Source/Effects/reverbsc.cpp ****     {
 1016              		.loc 1 182 5 is_stmt 0 discriminator 2 view .LVU387
 1017 01cc D1E7     		b	.L62
 1018              	.LVL68:
 1019              	.L40:
 235:../DaisySP/DaisySP-LGPL/Source/Effects/reverbsc.cpp ****                 read_pos += buffer_size;
 1020              		.loc 1 235 13 is_stmt 1 view .LVU388
 235:../DaisySP/DaisySP-LGPL/Source/Effects/reverbsc.cpp ****                 read_pos += buffer_size;
 1021              		.loc 1 235 27 is_stmt 0 view .LVU389
 1022 01ce 0139     		subs	r1, r1, #1
 1023              	.LVL69:
 236:../DaisySP/DaisySP-LGPL/Source/Effects/reverbsc.cpp ****             vm1 = (float)lp->buf[read_pos];
 1024              		.loc 1 236 17 is_stmt 1 view .LVU390
 236:../DaisySP/DaisySP-LGPL/Source/Effects/reverbsc.cpp ****             vm1 = (float)lp->buf[read_pos];
 1025              		.loc 1 236 26 is_stmt 0 view .LVU391
 1026 01d0 5E18     		adds	r6, r3, r1
 1027              	.LVL70:
 238:../DaisySP/DaisySP-LGPL/Source/Effects/reverbsc.cpp ****                 read_pos -= buffer_size;
 1028              		.loc 1 238 27 view .LVU392
 1029 01d2 711C     		adds	r1, r6, #1
 1030              	.LVL71:
 1031              	.L43:
 237:../DaisySP/DaisySP-LGPL/Source/Effects/reverbsc.cpp ****             if(++read_pos >= buffer_size)
 1032              		.loc 1 237 13 is_stmt 1 view .LVU393
 238:../DaisySP/DaisySP-LGPL/Source/Effects/reverbsc.cpp ****                 read_pos -= buffer_size;
 1033              		.loc 1 238 13 is_stmt 0 view .LVU394
 1034 01d4 8B42     		cmp	r3, r1
 237:../DaisySP/DaisySP-LGPL/Source/Effects/reverbsc.cpp ****             if(++read_pos >= buffer_size)
 1035              		.loc 1 237 17 view .LVU395
 1036 01d6 00EB8606 		add	r6, r0, r6, lsl #2
 1037              	.LVL72:
 239:../DaisySP/DaisySP-LGPL/Source/Effects/reverbsc.cpp ****             v0 = (float)lp->buf[read_pos];
 1038              		.loc 1 239 26 view .LVU396
 1039 01da D8BF     		it	le
 1040 01dc C91A     		suble	r1, r1, r3
 237:../DaisySP/DaisySP-LGPL/Source/Effects/reverbsc.cpp ****             if(++read_pos >= buffer_size)
 1041              		.loc 1 237 17 view .LVU397
 1042 01de D6ED002A 		vldr.32	s5, [r6]
 1043              	.LVL73:
 238:../DaisySP/DaisySP-LGPL/Source/Effects/reverbsc.cpp ****                 read_pos -= buffer_size;
 1044              		.loc 1 238 13 is_stmt 1 view .LVU398
 239:../DaisySP/DaisySP-LGPL/Source/Effects/reverbsc.cpp ****             v0 = (float)lp->buf[read_pos];
 1045              		.loc 1 239 17 view .LVU399
 240:../DaisySP/DaisySP-LGPL/Source/Effects/reverbsc.cpp ****             if(++read_pos >= buffer_size)
 1046              		.loc 1 240 13 view .LVU400
 240:../DaisySP/DaisySP-LGPL/Source/Effects/reverbsc.cpp ****             if(++read_pos >= buffer_size)
 1047              		.loc 1 240 16 is_stmt 0 view .LVU401
 1048 01e2 00EB8106 		add	r6, r0, r1, lsl #2
 241:../DaisySP/DaisySP-LGPL/Source/Effects/reverbsc.cpp ****                 read_pos -= buffer_size;
 1049              		.loc 1 241 27 view .LVU402
 1050 01e6 0131     		adds	r1, r1, #1
 1051              	.LVL74:
 241:../DaisySP/DaisySP-LGPL/Source/Effects/reverbsc.cpp ****                 read_pos -= buffer_size;
 1052              		.loc 1 241 13 view .LVU403
 1053 01e8 8B42     		cmp	r3, r1
 240:../DaisySP/DaisySP-LGPL/Source/Effects/reverbsc.cpp ****             if(++read_pos >= buffer_size)
 1054              		.loc 1 240 16 view .LVU404
ARM GAS  /var/folders/1c/r153ml_17wn3q6lsykf2p9y00000gn/T//ccFaxmsz.s 			page 29


 1055 01ea D6ED005A 		vldr.32	s11, [r6]
 1056              	.LVL75:
 241:../DaisySP/DaisySP-LGPL/Source/Effects/reverbsc.cpp ****                 read_pos -= buffer_size;
 1057              		.loc 1 241 13 is_stmt 1 view .LVU405
 242:../DaisySP/DaisySP-LGPL/Source/Effects/reverbsc.cpp ****             v1 = (float)lp->buf[read_pos];
 1058              		.loc 1 242 17 view .LVU406
 242:../DaisySP/DaisySP-LGPL/Source/Effects/reverbsc.cpp ****             v1 = (float)lp->buf[read_pos];
 1059              		.loc 1 242 26 is_stmt 0 view .LVU407
 1060 01ee D8BF     		it	le
 1061 01f0 C91A     		suble	r1, r1, r3
 1062              	.LVL76:
 243:../DaisySP/DaisySP-LGPL/Source/Effects/reverbsc.cpp ****             if(++read_pos >= buffer_size)
 1063              		.loc 1 243 13 is_stmt 1 view .LVU408
 243:../DaisySP/DaisySP-LGPL/Source/Effects/reverbsc.cpp ****             if(++read_pos >= buffer_size)
 1064              		.loc 1 243 16 is_stmt 0 view .LVU409
 1065 01f2 00EB8106 		add	r6, r0, r1, lsl #2
 244:../DaisySP/DaisySP-LGPL/Source/Effects/reverbsc.cpp ****                 read_pos -= buffer_size;
 1066              		.loc 1 244 27 view .LVU410
 1067 01f6 0131     		adds	r1, r1, #1
 1068              	.LVL77:
 244:../DaisySP/DaisySP-LGPL/Source/Effects/reverbsc.cpp ****                 read_pos -= buffer_size;
 1069              		.loc 1 244 13 view .LVU411
 1070 01f8 8B42     		cmp	r3, r1
 243:../DaisySP/DaisySP-LGPL/Source/Effects/reverbsc.cpp ****             if(++read_pos >= buffer_size)
 1071              		.loc 1 243 16 view .LVU412
 1072 01fa 96ED003A 		vldr.32	s6, [r6]
 1073              	.LVL78:
 244:../DaisySP/DaisySP-LGPL/Source/Effects/reverbsc.cpp ****                 read_pos -= buffer_size;
 1074              		.loc 1 244 13 is_stmt 1 view .LVU413
 245:../DaisySP/DaisySP-LGPL/Source/Effects/reverbsc.cpp ****             v2 = (float)lp->buf[read_pos];
 1075              		.loc 1 245 17 view .LVU414
 245:../DaisySP/DaisySP-LGPL/Source/Effects/reverbsc.cpp ****             v2 = (float)lp->buf[read_pos];
 1076              		.loc 1 245 26 is_stmt 0 view .LVU415
 1077 01fe D8BF     		it	le
 1078 0200 C91A     		suble	r1, r1, r3
 1079              	.LVL79:
 246:../DaisySP/DaisySP-LGPL/Source/Effects/reverbsc.cpp ****         }
 1080              		.loc 1 246 13 is_stmt 1 view .LVU416
 246:../DaisySP/DaisySP-LGPL/Source/Effects/reverbsc.cpp ****         }
 1081              		.loc 1 246 16 is_stmt 0 view .LVU417
 1082 0202 00EB8100 		add	r0, r0, r1, lsl #2
 1083 0206 90ED004A 		vldr.32	s8, [r0]
 1084 020a 88E7     		b	.L42
 1085              	.LVL80:
 1086              	.L41:
 235:../DaisySP/DaisySP-LGPL/Source/Effects/reverbsc.cpp ****                 read_pos += buffer_size;
 1087              		.loc 1 235 13 is_stmt 1 view .LVU418
 235:../DaisySP/DaisySP-LGPL/Source/Effects/reverbsc.cpp ****                 read_pos += buffer_size;
 1088              		.loc 1 235 27 is_stmt 0 view .LVU419
 1089 020c 4E1E     		subs	r6, r1, #1
 1090 020e E1E7     		b	.L43
 1091              	.LVL81:
 1092              	.L63:
 274:../DaisySP/DaisySP-LGPL/Source/Effects/reverbsc.cpp ****         {
 275:../DaisySP/DaisySP-LGPL/Source/Effects/reverbsc.cpp ****             NextRandomLineseg(lp, n);
 1093              		.loc 1 275 13 is_stmt 1 view .LVU420
 1094              		.loc 1 275 30 is_stmt 0 view .LVU421
ARM GAS  /var/folders/1c/r153ml_17wn3q6lsykf2p9y00000gn/T//ccFaxmsz.s 			page 30


 1095 0210 04F12401 		add	r1, r4, #36
 1096 0214 2846     		mov	r0, r5
 1097 0216 FFF7FEFF 		bl	_ZN7daisysp8ReverbSc17NextRandomLinesegEPNS_10ReverbScDlEi
 1098              	.LVL82:
 182:../DaisySP/DaisySP-LGPL/Source/Effects/reverbsc.cpp ****     {
 1099              		.loc 1 182 5 is_stmt 1 discriminator 2 view .LVU422
 1100 021a 0132     		adds	r2, r2, #1
 1101              	.LVL83:
 182:../DaisySP/DaisySP-LGPL/Source/Effects/reverbsc.cpp ****     {
 1102              		.loc 1 182 18 discriminator 1 view .LVU423
 1103 021c 082A     		cmp	r2, #8
 1104 021e A8D1     		bne	.L62
 1105              	.L52:
 276:../DaisySP/DaisySP-LGPL/Source/Effects/reverbsc.cpp ****         }
 277:../DaisySP/DaisySP-LGPL/Source/Effects/reverbsc.cpp ****     }
 278:../DaisySP/DaisySP-LGPL/Source/Effects/reverbsc.cpp ****     /* someday, use a_out_r for multimono out */
 279:../DaisySP/DaisySP-LGPL/Source/Effects/reverbsc.cpp **** 
 280:../DaisySP/DaisySP-LGPL/Source/Effects/reverbsc.cpp ****     *out1 = a_out_l * kOutputGain;
 1106              		.loc 1 280 5 view .LVU424
 1107              		.loc 1 280 21 is_stmt 0 view .LVU425
 1108 0220 DFED157A 		vldr.32	s15, .L65+16
 281:../DaisySP/DaisySP-LGPL/Source/Effects/reverbsc.cpp ****     *out2 = a_out_r * kOutputGain;
 282:../DaisySP/DaisySP-LGPL/Source/Effects/reverbsc.cpp ****     return REVSC_OK;
 1109              		.loc 1 282 12 view .LVU426
 1110 0224 0020     		movs	r0, #0
 281:../DaisySP/DaisySP-LGPL/Source/Effects/reverbsc.cpp ****     *out2 = a_out_r * kOutputGain;
 1111              		.loc 1 281 11 view .LVU427
 1112 0226 089B     		ldr	r3, [sp, #32]
 280:../DaisySP/DaisySP-LGPL/Source/Effects/reverbsc.cpp ****     *out2 = a_out_r * kOutputGain;
 1113              		.loc 1 280 21 view .LVU428
 1114 0228 61EEA71A 		vmul.f32	s3, s3, s15
 1115              	.LVL84:
 281:../DaisySP/DaisySP-LGPL/Source/Effects/reverbsc.cpp ****     *out2 = a_out_r * kOutputGain;
 1116              		.loc 1 281 21 view .LVU429
 1117 022c 22EE272A 		vmul.f32	s4, s4, s15
 1118              	.LVL85:
 280:../DaisySP/DaisySP-LGPL/Source/Effects/reverbsc.cpp ****     *out2 = a_out_r * kOutputGain;
 1119              		.loc 1 280 11 view .LVU430
 1120 0230 C7ED001A 		vstr.32	s3, [r7]
 281:../DaisySP/DaisySP-LGPL/Source/Effects/reverbsc.cpp ****     *out2 = a_out_r * kOutputGain;
 1121              		.loc 1 281 5 is_stmt 1 view .LVU431
 281:../DaisySP/DaisySP-LGPL/Source/Effects/reverbsc.cpp ****     *out2 = a_out_r * kOutputGain;
 1122              		.loc 1 281 11 is_stmt 0 view .LVU432
 1123 0234 83ED002A 		vstr.32	s4, [r3]
 1124              		.loc 1 282 5 is_stmt 1 view .LVU433
 283:../DaisySP/DaisySP-LGPL/Source/Effects/reverbsc.cpp **** }
 1125              		.loc 1 283 1 is_stmt 0 view .LVU434
 1126 0238 03B0     		add	sp, sp, #12
 1127              		.cfi_remember_state
 1128              		.cfi_def_cfa_offset 20
 1129              		@ sp needed
 1130 023a F0BD     		pop	{r4, r5, r6, r7, pc}
 1131              	.LVL86:
 1132              	.L64:
 1133              		.cfi_restore_state
 275:../DaisySP/DaisySP-LGPL/Source/Effects/reverbsc.cpp ****         }
 1134              		.loc 1 275 13 is_stmt 1 view .LVU435
ARM GAS  /var/folders/1c/r153ml_17wn3q6lsykf2p9y00000gn/T//ccFaxmsz.s 			page 31


 275:../DaisySP/DaisySP-LGPL/Source/Effects/reverbsc.cpp ****         }
 1135              		.loc 1 275 30 is_stmt 0 view .LVU436
 1136 023c 04F12401 		add	r1, r4, #36
 1137 0240 2846     		mov	r0, r5
 1138 0242 FFF7FEFF 		bl	_ZN7daisysp8ReverbSc17NextRandomLinesegEPNS_10ReverbScDlEi
 1139              	.LVL87:
 182:../DaisySP/DaisySP-LGPL/Source/Effects/reverbsc.cpp ****     {
 1140              		.loc 1 182 5 is_stmt 1 discriminator 2 view .LVU437
 182:../DaisySP/DaisySP-LGPL/Source/Effects/reverbsc.cpp ****     {
 1141              		.loc 1 182 18 is_stmt 0 discriminator 1 view .LVU438
 1142 0246 2834     		adds	r4, r4, #40
 182:../DaisySP/DaisySP-LGPL/Source/Effects/reverbsc.cpp ****     {
 1143              		.loc 1 182 5 discriminator 2 view .LVU439
 1144 0248 0132     		adds	r2, r2, #1
 1145              	.LVL88:
 182:../DaisySP/DaisySP-LGPL/Source/Effects/reverbsc.cpp ****     {
 1146              		.loc 1 182 18 is_stmt 1 discriminator 1 view .LVU440
 1147 024a 0AE7     		b	.L53
 1148              	.LVL89:
 1149              	.L54:
 157:../DaisySP/DaisySP-LGPL/Source/Effects/reverbsc.cpp **** 
 1150              		.loc 1 157 16 is_stmt 0 view .LVU441
 1151 024c 0120     		movs	r0, #1
 1152              	.LVL90:
 1153              		.loc 1 283 1 view .LVU442
 1154 024e 03B0     		add	sp, sp, #12
 1155              		.cfi_remember_state
 1156              		.cfi_def_cfa_offset 20
 1157              		@ sp needed
 1158 0250 F0BD     		pop	{r4, r5, r6, r7, pc}
 1159              	.LVL91:
 1160              	.L59:
 1161              		.cfi_restore_state
 1162              		.loc 1 283 1 view .LVU443
 1163 0252 0192     		str	r2, [sp, #4]
 1164 0254 8DED001A 		vstr.32	s2, [sp]	@ int
 166:../DaisySP/DaisySP-LGPL/Source/Effects/reverbsc.cpp ****     }
 1165              		.loc 1 166 32 view .LVU444
 1166 0258 FFF7FEFF 		bl	sqrtf
 1167              	.LVL92:
 166:../DaisySP/DaisySP-LGPL/Source/Effects/reverbsc.cpp ****     }
 1168              		.loc 1 166 32 view .LVU445
 1169 025c 019A     		ldr	r2, [sp, #4]
 1170 025e F0EE407A 		vmov.f32	s15, s0
 1171 0262 9DED001A 		vldr.32	s2, [sp]	@ int
 1172 0266 A5E7     		b	.L34
 1173              	.L66:
 1174              		.align	3
 1175              	.L65:
 1176 0268 55555555 		.word	1431655765
 1177 026c 5555C53F 		.word	1069897045
 1178 0270 00000000 		.word	0
 1179 0274 DB0FC940 		.word	1086918619
 1180 0278 3333B33E 		.word	1051931443
 1181              		.cfi_endproc
 1182              	.LFE562:
 1184              		.section	.rodata._ZL13kReverbParams,"a"
ARM GAS  /var/folders/1c/r153ml_17wn3q6lsykf2p9y00000gn/T//ccFaxmsz.s 			page 32


 1185              		.align	2
 1188              	_ZL13kReverbParams:
 1189 0000 8207533D 		.word	1028851586
 1190 0004 6F12833A 		.word	981668463
 1191 0008 66664640 		.word	1078355558
 1192 000c 00C0F544 		.word	1156956160
 1193 0010 0A1E6C3D 		.word	1030495754
 1194 0014 E02D903A 		.word	982527456
 1195 0018 00006040 		.word	1080033280
 1196 001c 0066E646 		.word	1189504512
 1197 0020 3842893D 		.word	1032405560
 1198 0024 89D2DE3A 		.word	987681417
 1199 0028 7B148E3F 		.word	1066275963
 1200 002c 0032B346 		.word	1186148864
 1201 0030 EDC3973D 		.word	1033356269
 1202 0034 52491D3A 		.word	974997842
 1203 0038 A2457E40 		.word	1082017186
 1204 003c 00981946 		.word	1176082432
 1205 0040 DCB2A63D 		.word	1034334940
 1206 0044 6F12833A 		.word	981668463
 1207 0048 F2D21540 		.word	1075172082
 1208 004c 0046A146 		.word	1184974336
 1209 0050 D815B03D 		.word	1034950104
 1210 0054 E02D903A 		.word	982527456
 1211 0058 E5D0F23F 		.word	1072877797
 1212 005c 0032B346 		.word	1186148864
 1213 0060 8DDE363D 		.word	1027006093
 1214 0064 89D2DE3A 		.word	987681417
 1215 0068 9318643F 		.word	1063524499
 1216 006c 0066E646 		.word	1189504512
 1217 0070 08F3243D 		.word	1025831688
 1218 0074 52491D3A 		.word	974997842
 1219 0078 DD244E40 		.word	1078863069
 1220 007c 00446146 		.word	1180779520
 1221              		.text
 1222              	.Letext0:
 1223              		.file 2 "/Applications/ArmGNUToolchain/15.2.rel1/arm-none-eabi/arm-none-eabi/include/machine/_defa
 1224              		.file 3 "/Applications/ArmGNUToolchain/15.2.rel1/arm-none-eabi/arm-none-eabi/include/sys/_stdint.h
 1225              		.file 4 "../libDaisy/Drivers/CMSIS/Device/ST/STM32H7xx/Include/stm32h7xx.h"
 1226              		.file 5 "/Applications/ArmGNUToolchain/15.2.rel1/arm-none-eabi/lib/gcc/arm-none-eabi/15.2.1/includ
 1227              		.file 6 "/Applications/ArmGNUToolchain/15.2.rel1/arm-none-eabi/arm-none-eabi/include/c++/15.2.1/bi
 1228              		.file 7 "/Applications/ArmGNUToolchain/15.2.rel1/arm-none-eabi/arm-none-eabi/include/c++/15.2.1/cm
 1229              		.file 8 "/Applications/ArmGNUToolchain/15.2.rel1/arm-none-eabi/arm-none-eabi/include/c++/15.2.1/bi
 1230              		.file 9 "/Applications/ArmGNUToolchain/15.2.rel1/arm-none-eabi/arm-none-eabi/include/c++/15.2.1/cs
 1231              		.file 10 "/Applications/ArmGNUToolchain/15.2.rel1/arm-none-eabi/arm-none-eabi/include/math.h"
 1232              		.file 11 "/Applications/ArmGNUToolchain/15.2.rel1/arm-none-eabi/arm-none-eabi/include/stdlib.h"
 1233              		.file 12 "/Applications/ArmGNUToolchain/15.2.rel1/arm-none-eabi/arm-none-eabi/include/c++/15.2.1/m
 1234              		.file 13 "../libDaisy/Drivers/STM32H7xx_HAL_Driver/Inc/stm32h7xx_hal_comp.h"
 1235              		.file 14 "../libDaisy/Drivers/STM32H7xx_HAL_Driver/Inc/stm32h7xx_hal.h"
 1236              		.file 15 "/Applications/ArmGNUToolchain/15.2.rel1/arm-none-eabi/arm-none-eabi/include/c++/15.2.1/s
 1237              		.file 16 "/Applications/ArmGNUToolchain/15.2.rel1/arm-none-eabi/arm-none-eabi/include/c++/15.2.1/a
 1238              		.file 17 "../DaisySP/DaisySP-LGPL/Source/Effects/reverbsc.h"
ARM GAS  /var/folders/1c/r153ml_17wn3q6lsykf2p9y00000gn/T//ccFaxmsz.s 			page 33

