ARM GAS  /var/folders/1c/r153ml_17wn3q6lsykf2p9y00000gn/T//ccV3PK4F.s 			page 1


   1              		.cpu cortex-m7
   2              		.arch armv7e-m
   3              		.fpu fpv5-d16
   4              		.eabi_attribute 28, 1
   5              		.eabi_attribute 20, 1
   6              		.eabi_attribute 21, 1
   7              		.eabi_attribute 23, 3
   8              		.eabi_attribute 24, 1
   9              		.eabi_attribute 25, 1
  10              		.eabi_attribute 26, 1
  11              		.eabi_attribute 30, 2
  12              		.eabi_attribute 34, 1
  13              		.eabi_attribute 18, 4
  14              		.file	"reverb.cpp"
  15              		.text
  16              	.Ltext0:
  17              		.cfi_sections	.debug_frame
  18              		.file 1 "reverb.cpp"
  19              		.section	.text._ZN5daisy8patch_sm12DaisyPatchSMD2Ev,"axG",%progbits,_ZN5daisy8patch_sm12DaisyPatch
  20              		.align	1
  21              		.p2align 2,,3
  22              		.weak	_ZN5daisy8patch_sm12DaisyPatchSMD2Ev
  23              		.syntax unified
  24              		.thumb
  25              		.thumb_func
  27              	_ZN5daisy8patch_sm12DaisyPatchSMD2Ev:
  28              	.LVL0:
  29              	.LFB2343:
  30              		.file 2 "../libDaisy/src/daisy_patch_sm.h"
   1:../libDaisy/src/daisy_patch_sm.h **** #pragma once
   2:../libDaisy/src/daisy_patch_sm.h **** 
   3:../libDaisy/src/daisy_patch_sm.h **** #include "daisy.h"
   4:../libDaisy/src/daisy_patch_sm.h **** 
   5:../libDaisy/src/daisy_patch_sm.h **** namespace daisy
   6:../libDaisy/src/daisy_patch_sm.h **** {
   7:../libDaisy/src/daisy_patch_sm.h **** namespace patch_sm
   8:../libDaisy/src/daisy_patch_sm.h **** {
   9:../libDaisy/src/daisy_patch_sm.h ****     /** Accessors for the Analog Controls. 
  10:../libDaisy/src/daisy_patch_sm.h ****      *  These cover the 8x Bipolar CV inputs
  11:../libDaisy/src/daisy_patch_sm.h ****      *  as well as the 4x 0-3V3 ADC inputs on
  12:../libDaisy/src/daisy_patch_sm.h ****      *  the hardware 
  13:../libDaisy/src/daisy_patch_sm.h ****      * 
  14:../libDaisy/src/daisy_patch_sm.h ****      *  When reading a value with DaisyPatchSM::GetAdcValue()
  15:../libDaisy/src/daisy_patch_sm.h ****      * 
  16:../libDaisy/src/daisy_patch_sm.h ****      *  patch.GetAdcValue(patch_sm::CV_1);
  17:../libDaisy/src/daisy_patch_sm.h ****      */
  18:../libDaisy/src/daisy_patch_sm.h ****     enum
  19:../libDaisy/src/daisy_patch_sm.h ****     {
  20:../libDaisy/src/daisy_patch_sm.h ****         CV_1 = 0,
  21:../libDaisy/src/daisy_patch_sm.h ****         CV_2,
  22:../libDaisy/src/daisy_patch_sm.h ****         CV_3,
  23:../libDaisy/src/daisy_patch_sm.h ****         CV_4,
  24:../libDaisy/src/daisy_patch_sm.h ****         CV_5,
  25:../libDaisy/src/daisy_patch_sm.h ****         CV_6,
  26:../libDaisy/src/daisy_patch_sm.h ****         CV_7,
  27:../libDaisy/src/daisy_patch_sm.h ****         CV_8,
  28:../libDaisy/src/daisy_patch_sm.h ****         ADC_9,
ARM GAS  /var/folders/1c/r153ml_17wn3q6lsykf2p9y00000gn/T//ccV3PK4F.s 			page 2


  29:../libDaisy/src/daisy_patch_sm.h ****         ADC_10,
  30:../libDaisy/src/daisy_patch_sm.h ****         ADC_11,
  31:../libDaisy/src/daisy_patch_sm.h ****         ADC_12,
  32:../libDaisy/src/daisy_patch_sm.h ****         ADC_LAST,
  33:../libDaisy/src/daisy_patch_sm.h ****     };
  34:../libDaisy/src/daisy_patch_sm.h **** 
  35:../libDaisy/src/daisy_patch_sm.h ****     /** Enum for addressing the CV Outputs via the WriteCvOut function. */
  36:../libDaisy/src/daisy_patch_sm.h ****     enum
  37:../libDaisy/src/daisy_patch_sm.h ****     {
  38:../libDaisy/src/daisy_patch_sm.h ****         CV_OUT_BOTH = 0,
  39:../libDaisy/src/daisy_patch_sm.h ****         CV_OUT_1,
  40:../libDaisy/src/daisy_patch_sm.h ****         CV_OUT_2,
  41:../libDaisy/src/daisy_patch_sm.h ****     };
  42:../libDaisy/src/daisy_patch_sm.h **** 
  43:../libDaisy/src/daisy_patch_sm.h **** 
  44:../libDaisy/src/daisy_patch_sm.h ****     /** @brief Board support file for DaisyPatchSM hardware
  45:../libDaisy/src/daisy_patch_sm.h ****      *  @author shensley
  46:../libDaisy/src/daisy_patch_sm.h ****      *  @ingroup boards
  47:../libDaisy/src/daisy_patch_sm.h ****      * 
  48:../libDaisy/src/daisy_patch_sm.h ****      *  Daisy Patch SM is a complete Eurorack module DSP engine.
  49:../libDaisy/src/daisy_patch_sm.h ****      *  Based on the Daisy Seed, with circuits added for 
  50:../libDaisy/src/daisy_patch_sm.h ****      *  interfacing directly with eurorack modular synthesizers.
  51:../libDaisy/src/daisy_patch_sm.h ****      */
  52:../libDaisy/src/daisy_patch_sm.h ****     class DaisyPatchSM
  53:../libDaisy/src/daisy_patch_sm.h ****     {
  54:../libDaisy/src/daisy_patch_sm.h ****       public:
  55:../libDaisy/src/daisy_patch_sm.h ****         /** Helper for mapping pins, and accessing them using the `GetPin` function */
  56:../libDaisy/src/daisy_patch_sm.h ****         enum class PinBank
  57:../libDaisy/src/daisy_patch_sm.h ****         {
  58:../libDaisy/src/daisy_patch_sm.h ****             A,
  59:../libDaisy/src/daisy_patch_sm.h ****             B,
  60:../libDaisy/src/daisy_patch_sm.h ****             C,
  61:../libDaisy/src/daisy_patch_sm.h ****             D
  62:../libDaisy/src/daisy_patch_sm.h ****         };
  63:../libDaisy/src/daisy_patch_sm.h **** 
  64:../libDaisy/src/daisy_patch_sm.h ****         DaisyPatchSM() {}
  65:../libDaisy/src/daisy_patch_sm.h ****         ~DaisyPatchSM() {}
  31              		.loc 2 65 9 view -0
  32              		.cfi_startproc
  33              		@ args = 0, pretend = 0, frame = 0
  34              		@ frame_needed = 0, uses_anonymous_args = 0
  35              		@ link register save eliminated.
  36              	.LBB186:
  37              	.LBB187:
  38              	.LBI187:
  39              		.file 3 "../libDaisy/src/hid/gatein.h"
   1:../libDaisy/src/hid/gatein.h **** #pragma once
   2:../libDaisy/src/hid/gatein.h **** #ifndef DSY_GATEIN_H
   3:../libDaisy/src/hid/gatein.h **** #define DSY_GATEIN_H
   4:../libDaisy/src/hid/gatein.h **** #include "per/gpio.h"
   5:../libDaisy/src/hid/gatein.h **** 
   6:../libDaisy/src/hid/gatein.h **** namespace daisy
   7:../libDaisy/src/hid/gatein.h **** {
   8:../libDaisy/src/hid/gatein.h **** /**
   9:../libDaisy/src/hid/gatein.h ****    @brief Generic Class for handling gate inputs through GPIO.
  10:../libDaisy/src/hid/gatein.h ****    @author Stephen Hensley
  11:../libDaisy/src/hid/gatein.h ****    @date    March 2020
ARM GAS  /var/folders/1c/r153ml_17wn3q6lsykf2p9y00000gn/T//ccV3PK4F.s 			page 3


  12:../libDaisy/src/hid/gatein.h ****    @ingroup controls
  13:../libDaisy/src/hid/gatein.h **** */
  14:../libDaisy/src/hid/gatein.h **** class GateIn
  15:../libDaisy/src/hid/gatein.h **** {
  16:../libDaisy/src/hid/gatein.h ****   public:
  17:../libDaisy/src/hid/gatein.h ****     /** GateIn Constructor */
  18:../libDaisy/src/hid/gatein.h ****     GateIn() {}
  19:../libDaisy/src/hid/gatein.h **** 
  20:../libDaisy/src/hid/gatein.h ****     /** GateIn Destructor */
  21:../libDaisy/src/hid/gatein.h ****     ~GateIn() {}
  40              		.loc 3 21 5 view .LVU1
  41              		.loc 3 21 5 is_stmt 0 view .LVU2
  42              	.LBE187:
  43              	.LBB188:
  44              	.LBI188:
  45              		.loc 3 21 5 is_stmt 1 view .LVU3
  46              		.loc 3 21 5 is_stmt 0 view .LVU4
  47              	.LBE188:
  48              	.LBB189:
  49              	.LBI189:
  50              		.file 4 "../libDaisy/src/dev/codec_pcm3060.h"
   1:../libDaisy/src/dev/codec_pcm3060.h **** #pragma once
   2:../libDaisy/src/dev/codec_pcm3060.h **** #ifndef DSY_CODEC_PCM3060_H
   3:../libDaisy/src/dev/codec_pcm3060.h **** #define DSY_CODEC_PCM3060_H
   4:../libDaisy/src/dev/codec_pcm3060.h **** #include "per/i2c.h"
   5:../libDaisy/src/dev/codec_pcm3060.h **** namespace daisy
   6:../libDaisy/src/dev/codec_pcm3060.h **** {
   7:../libDaisy/src/dev/codec_pcm3060.h **** /**
   8:../libDaisy/src/dev/codec_pcm3060.h ****  * @brief Driver for the TI PCM3060 Audio Codec.
   9:../libDaisy/src/dev/codec_pcm3060.h ****  * @addtogroup codec
  10:../libDaisy/src/dev/codec_pcm3060.h ****  * 
  11:../libDaisy/src/dev/codec_pcm3060.h ****  * For now this is a limited interface that uses I2C to communicate with the PCM3060
  12:../libDaisy/src/dev/codec_pcm3060.h ****  * The device can also be accessed with SPI, which is not yet supported.
  13:../libDaisy/src/dev/codec_pcm3060.h ****  * 
  14:../libDaisy/src/dev/codec_pcm3060.h ****  * For now all registers are set to their defaults, and the Init function will 
  15:../libDaisy/src/dev/codec_pcm3060.h ****  * perform a MRST and SRST before setting the format to 24bit LJ, and disabling 
  16:../libDaisy/src/dev/codec_pcm3060.h ****  * power save for both the ADC and DAC.
  17:../libDaisy/src/dev/codec_pcm3060.h ****  *
  18:../libDaisy/src/dev/codec_pcm3060.h ****  */
  19:../libDaisy/src/dev/codec_pcm3060.h **** class Pcm3060
  20:../libDaisy/src/dev/codec_pcm3060.h **** {
  21:../libDaisy/src/dev/codec_pcm3060.h ****   public:
  22:../libDaisy/src/dev/codec_pcm3060.h ****     enum class Result
  23:../libDaisy/src/dev/codec_pcm3060.h ****     {
  24:../libDaisy/src/dev/codec_pcm3060.h ****         OK,
  25:../libDaisy/src/dev/codec_pcm3060.h ****         ERR,
  26:../libDaisy/src/dev/codec_pcm3060.h ****     };
  27:../libDaisy/src/dev/codec_pcm3060.h **** 
  28:../libDaisy/src/dev/codec_pcm3060.h ****     Pcm3060() {}
  29:../libDaisy/src/dev/codec_pcm3060.h ****     ~Pcm3060() {}
  51              		.loc 4 29 5 is_stmt 1 view .LVU5
  52              		.loc 4 29 5 is_stmt 0 view .LVU6
  53              	.LBE189:
  54              	.LBB190:
  55              	.LBI190:
  56              		.file 5 "../libDaisy/src/hid/usb.h"
   1:../libDaisy/src/hid/usb.h **** #pragma once
ARM GAS  /var/folders/1c/r153ml_17wn3q6lsykf2p9y00000gn/T//ccV3PK4F.s 			page 4


   2:../libDaisy/src/hid/usb.h **** #ifndef DSY_HID_USB_H
   3:../libDaisy/src/hid/usb.h **** #define DSY_HID_USB_H
   4:../libDaisy/src/hid/usb.h **** #include <stdint.h>
   5:../libDaisy/src/hid/usb.h **** #include <stdlib.h>
   6:../libDaisy/src/hid/usb.h **** 
   7:../libDaisy/src/hid/usb.h **** namespace daisy
   8:../libDaisy/src/hid/usb.h **** /** @addtogroup human_interface
   9:../libDaisy/src/hid/usb.h ****     @{
  10:../libDaisy/src/hid/usb.h **** */
  11:../libDaisy/src/hid/usb.h **** 
  12:../libDaisy/src/hid/usb.h **** {
  13:../libDaisy/src/hid/usb.h **** /** 
  14:../libDaisy/src/hid/usb.h ****     @brief Interface for initializing and using the USB Peripherals on the daisy
  15:../libDaisy/src/hid/usb.h ****     @author Stephen Hensley
  16:../libDaisy/src/hid/usb.h ****     @date December 2019
  17:../libDaisy/src/hid/usb.h **** */
  18:../libDaisy/src/hid/usb.h **** class UsbHandle
  19:../libDaisy/src/hid/usb.h **** {
  20:../libDaisy/src/hid/usb.h ****   public:
  21:../libDaisy/src/hid/usb.h ****     /** Return values for USBHandle Functions */
  22:../libDaisy/src/hid/usb.h ****     enum class Result
  23:../libDaisy/src/hid/usb.h ****     {
  24:../libDaisy/src/hid/usb.h ****         OK,
  25:../libDaisy/src/hid/usb.h ****         ERR,
  26:../libDaisy/src/hid/usb.h ****     };
  27:../libDaisy/src/hid/usb.h **** 
  28:../libDaisy/src/hid/usb.h ****     /** Specified which of the two USB Peripherals to initialize. */
  29:../libDaisy/src/hid/usb.h ****     enum UsbPeriph
  30:../libDaisy/src/hid/usb.h ****     {
  31:../libDaisy/src/hid/usb.h ****         FS_INTERNAL, /**< Internal pin */
  32:../libDaisy/src/hid/usb.h ****         FS_EXTERNAL, /**< FS External D+ pin is Pin 38 (GPIO32). FS External D- pin is Pin 37 (GPIO
  33:../libDaisy/src/hid/usb.h ****         FS_BOTH,     /**< Both */
  34:../libDaisy/src/hid/usb.h ****     };
  35:../libDaisy/src/hid/usb.h **** 
  36:../libDaisy/src/hid/usb.h **** 
  37:../libDaisy/src/hid/usb.h ****     /** Function called upon reception of a buffer */
  38:../libDaisy/src/hid/usb.h ****     typedef void (*ReceiveCallback)(uint8_t* buff, uint32_t* len);
  39:../libDaisy/src/hid/usb.h **** 
  40:../libDaisy/src/hid/usb.h ****     UsbHandle() {}
  41:../libDaisy/src/hid/usb.h **** 
  42:../libDaisy/src/hid/usb.h ****     ~UsbHandle() {}
  57              		.loc 5 42 5 is_stmt 1 view .LVU7
  58              		.loc 5 42 5 is_stmt 0 view .LVU8
  59              	.LBE190:
  60              	.LBB191:
  61              	.LBI191:
  62              		.file 6 "../libDaisy/src/per/adc.h"
   1:../libDaisy/src/per/adc.h **** #pragma once
   2:../libDaisy/src/per/adc.h **** #ifndef DSY_ADC_H
   3:../libDaisy/src/per/adc.h **** #define DSY_ADC_H /**< Macro */
   4:../libDaisy/src/per/adc.h **** #include <stdint.h>
   5:../libDaisy/src/per/adc.h **** #include <stdlib.h>
   6:../libDaisy/src/per/adc.h **** #include "daisy_core.h"
   7:../libDaisy/src/per/adc.h **** #include "per/gpio.h"
   8:../libDaisy/src/per/adc.h **** 
   9:../libDaisy/src/per/adc.h **** #define DSY_ADC_MAX_CHANNELS 16 /**< Maximum number of ADC channels */
  10:../libDaisy/src/per/adc.h **** 
ARM GAS  /var/folders/1c/r153ml_17wn3q6lsykf2p9y00000gn/T//ccV3PK4F.s 			page 5


  11:../libDaisy/src/per/adc.h **** namespace daisy
  12:../libDaisy/src/per/adc.h **** {
  13:../libDaisy/src/per/adc.h **** /** @addtogroup per_analog
  14:../libDaisy/src/per/adc.h ****     @{
  15:../libDaisy/src/per/adc.h **** */
  16:../libDaisy/src/per/adc.h **** 
  17:../libDaisy/src/per/adc.h **** /* While there may not be many configuration options here,
  18:../libDaisy/src/per/adc.h **** using a struct like this allows us to add more configuration
  19:../libDaisy/src/per/adc.h **** later without breaking existing functionality.
  20:../libDaisy/src/per/adc.h **** */
  21:../libDaisy/src/per/adc.h **** 
  22:../libDaisy/src/per/adc.h **** /** @brief   Configuration Structure for an ADC Channel 
  23:../libDaisy/src/per/adc.h ****  *  @details This can be used to configure a a single input, 
  24:../libDaisy/src/per/adc.h ****  *           or a multiplexed input, allowing up to 8 inputs on 
  25:../libDaisy/src/per/adc.h ****  *           one channel.
  26:../libDaisy/src/per/adc.h ****  *  @note    Sharing data lines to multiple muxes _is_ possible, but
  27:../libDaisy/src/per/adc.h ****  *           each channel sharing data lines must be set to the maximum
  28:../libDaisy/src/per/adc.h ****  *           number of channels, even if some multiplexers have fewer
  29:../libDaisy/src/per/adc.h ****  *           inputs connected.
  30:../libDaisy/src/per/adc.h **** */
  31:../libDaisy/src/per/adc.h **** struct AdcChannelConfig
  32:../libDaisy/src/per/adc.h **** {
  33:../libDaisy/src/per/adc.h ****     /** Which pin to use for multiplexing */
  34:../libDaisy/src/per/adc.h ****     enum MuxPin
  35:../libDaisy/src/per/adc.h ****     {
  36:../libDaisy/src/per/adc.h ****         MUX_SEL_0,    /**< & */
  37:../libDaisy/src/per/adc.h ****         MUX_SEL_1,    /**< & */
  38:../libDaisy/src/per/adc.h ****         MUX_SEL_2,    /**< & */
  39:../libDaisy/src/per/adc.h ****         MUX_SEL_LAST, /**< & */
  40:../libDaisy/src/per/adc.h ****     };
  41:../libDaisy/src/per/adc.h **** 
  42:../libDaisy/src/per/adc.h ****     /** \brief per channel conversion speed added to fixed time based on bitdepth, etc. */
  43:../libDaisy/src/per/adc.h ****     enum ConversionSpeed
  44:../libDaisy/src/per/adc.h ****     {
  45:../libDaisy/src/per/adc.h ****         SPEED_1CYCLES_5,
  46:../libDaisy/src/per/adc.h ****         SPEED_2CYCLES_5,
  47:../libDaisy/src/per/adc.h ****         SPEED_8CYCLES_5,
  48:../libDaisy/src/per/adc.h ****         SPEED_16CYCLES_5,
  49:../libDaisy/src/per/adc.h ****         SPEED_32CYCLES_5,
  50:../libDaisy/src/per/adc.h ****         SPEED_64CYCLES_5,
  51:../libDaisy/src/per/adc.h ****         SPEED_387CYCLES_5,
  52:../libDaisy/src/per/adc.h ****         SPEED_810CYCLES_5,
  53:../libDaisy/src/per/adc.h ****     };
  54:../libDaisy/src/per/adc.h **** 
  55:../libDaisy/src/per/adc.h ****     /** Initializes a single ADC pin as an ADC. 
  56:../libDaisy/src/per/adc.h ****     \param pin Pin to init.
  57:../libDaisy/src/per/adc.h ****     \param speed conversion speed for this pin defaults to 8.5 cycles
  58:../libDaisy/src/per/adc.h ****      */
  59:../libDaisy/src/per/adc.h ****     void InitSingle(dsy_gpio_pin pin, ConversionSpeed speed = SPEED_8CYCLES_5);
  60:../libDaisy/src/per/adc.h **** 
  61:../libDaisy/src/per/adc.h ****     /** 
  62:../libDaisy/src/per/adc.h ****     Initializes a single ADC pin as a Multiplexed ADC.
  63:../libDaisy/src/per/adc.h ****     Requires a CD405X Multiplexer connected to the pin.
  64:../libDaisy/src/per/adc.h ****     You only need to supply the mux pins that are required,
  65:../libDaisy/src/per/adc.h ****     e.g. a 4052 mux would only require mux_0 and mux_1.
  66:../libDaisy/src/per/adc.h ****     Internal Callbacks handle the pin addressing.
  67:../libDaisy/src/per/adc.h ****     \param adc_pin &
ARM GAS  /var/folders/1c/r153ml_17wn3q6lsykf2p9y00000gn/T//ccV3PK4F.s 			page 6


  68:../libDaisy/src/per/adc.h ****     \param mux_channels must be 1-8
  69:../libDaisy/src/per/adc.h ****     \param mux_0 First mux pin
  70:../libDaisy/src/per/adc.h ****     \param mux_1 Second mux pin
  71:../libDaisy/src/per/adc.h ****     \param mux_2 Third mux pin
  72:../libDaisy/src/per/adc.h ****     \param speed conversion speed for this pin defaults to 8.5 cycles
  73:../libDaisy/src/per/adc.h ****     */
  74:../libDaisy/src/per/adc.h ****     void InitMux(dsy_gpio_pin    adc_pin,
  75:../libDaisy/src/per/adc.h ****                  size_t          mux_channels,
  76:../libDaisy/src/per/adc.h ****                  dsy_gpio_pin    mux_0,
  77:../libDaisy/src/per/adc.h ****                  dsy_gpio_pin    mux_1 = {DSY_GPIOX, 0},
  78:../libDaisy/src/per/adc.h ****                  dsy_gpio_pin    mux_2 = {DSY_GPIOX, 0},
  79:../libDaisy/src/per/adc.h ****                  ConversionSpeed speed = SPEED_8CYCLES_5);
  80:../libDaisy/src/per/adc.h **** 
  81:../libDaisy/src/per/adc.h ****     dsy_gpio        pin_;                   /**< & */
  82:../libDaisy/src/per/adc.h ****     dsy_gpio        mux_pin_[MUX_SEL_LAST]; /**< & */
  83:../libDaisy/src/per/adc.h ****     uint8_t         mux_channels_;          /**< & */
  84:../libDaisy/src/per/adc.h ****     ConversionSpeed speed_;
  85:../libDaisy/src/per/adc.h **** };
  86:../libDaisy/src/per/adc.h **** 
  87:../libDaisy/src/per/adc.h **** /**
  88:../libDaisy/src/per/adc.h ****    @brief Handler for analog to digital conversion
  89:../libDaisy/src/per/adc.h **** */
  90:../libDaisy/src/per/adc.h **** class AdcHandle
  91:../libDaisy/src/per/adc.h **** {
  92:../libDaisy/src/per/adc.h ****   public:
  93:../libDaisy/src/per/adc.h ****     /** Supported oversampling amounts */
  94:../libDaisy/src/per/adc.h ****     enum OverSampling
  95:../libDaisy/src/per/adc.h ****     {
  96:../libDaisy/src/per/adc.h ****         OVS_NONE, /**< & */
  97:../libDaisy/src/per/adc.h ****         OVS_4,    /**< & */
  98:../libDaisy/src/per/adc.h ****         OVS_8,    /**< & */
  99:../libDaisy/src/per/adc.h ****         OVS_16,   /**< & */
 100:../libDaisy/src/per/adc.h ****         OVS_32,   /**< & */
 101:../libDaisy/src/per/adc.h ****         OVS_64,   /**< & */
 102:../libDaisy/src/per/adc.h ****         OVS_128,  /**< & */
 103:../libDaisy/src/per/adc.h ****         OVS_256,  /**< & */
 104:../libDaisy/src/per/adc.h ****         OVS_512,  /**< & */
 105:../libDaisy/src/per/adc.h ****         OVS_1024, /**< & */
 106:../libDaisy/src/per/adc.h ****         OVS_LAST, /**< & */
 107:../libDaisy/src/per/adc.h ****     };
 108:../libDaisy/src/per/adc.h **** 
 109:../libDaisy/src/per/adc.h ****     AdcHandle() {}
 110:../libDaisy/src/per/adc.h ****     ~AdcHandle() {}
  63              		.loc 6 110 5 is_stmt 1 view .LVU9
  64              		.loc 6 110 5 is_stmt 0 view .LVU10
  65              	.LBE191:
  66              	.LBB192:
  67              	.LBI192:
  68              		.file 7 "../libDaisy/src/hid/audio.h"
   1:../libDaisy/src/hid/audio.h **** #ifndef DSY_AUDIO_H
   2:../libDaisy/src/hid/audio.h **** #define DSY_AUDIO_H /**< & */
   3:../libDaisy/src/hid/audio.h **** 
   4:../libDaisy/src/hid/audio.h **** #include "per/sai.h"
   5:../libDaisy/src/hid/audio.h **** 
   6:../libDaisy/src/hid/audio.h **** namespace daisy
   7:../libDaisy/src/hid/audio.h **** {
   8:../libDaisy/src/hid/audio.h **** /** @brief Audio Engine Handle
ARM GAS  /var/folders/1c/r153ml_17wn3q6lsykf2p9y00000gn/T//ccV3PK4F.s 			page 7


   9:../libDaisy/src/hid/audio.h ****  *  @ingroup audio 
  10:../libDaisy/src/hid/audio.h ****  *  @details This class allows for higher level access to an audio engine.
  11:../libDaisy/src/hid/audio.h ****  *           If you're using a SOM like the DaisySeed or DaisyPatchSM (or any 
  12:../libDaisy/src/hid/audio.h ****  *            board that includes one of those objects) then the intialization
  13:../libDaisy/src/hid/audio.h ****  *            is already taken  care of.
  14:../libDaisy/src/hid/audio.h ****  *           If you're setting up your own custom hardware, or need to make changes
  15:../libDaisy/src/hid/audio.h ****  *           you will have to take the following steps:
  16:../libDaisy/src/hid/audio.h ****  *             1. Create and Initialize an SaiHandle or two depending on your requirements
  17:../libDaisy/src/hid/audio.h ****  *             2. Initialize the Audio Handle with the desired settings and the Initialized SaiHand
  18:../libDaisy/src/hid/audio.h ****  *             3. If the connected codec requires special configuration or initialization, do so
  19:../libDaisy/src/hid/audio.h ****  *             4. Write a callback method using either the AudioCallback or the InterleavingAudioCa
  20:../libDaisy/src/hid/audio.h ****  *             5. Start the Audio using one of the StartAudio function
  21:../libDaisy/src/hid/audio.h ****  */
  22:../libDaisy/src/hid/audio.h **** class AudioHandle
  23:../libDaisy/src/hid/audio.h **** {
  24:../libDaisy/src/hid/audio.h ****   public:
  25:../libDaisy/src/hid/audio.h ****     /** Manually configurable details about the Audio Engine */
  26:../libDaisy/src/hid/audio.h ****     /** TODO: Figure out how to get samplerate in here. */
  27:../libDaisy/src/hid/audio.h ****     struct Config
  28:../libDaisy/src/hid/audio.h ****     {
  29:../libDaisy/src/hid/audio.h ****         /** number of samples to process per callback */
  30:../libDaisy/src/hid/audio.h ****         size_t blocksize;
  31:../libDaisy/src/hid/audio.h **** 
  32:../libDaisy/src/hid/audio.h ****         /**< Sample rate of audio */
  33:../libDaisy/src/hid/audio.h ****         SaiHandle::Config::SampleRate samplerate;
  34:../libDaisy/src/hid/audio.h **** 
  35:../libDaisy/src/hid/audio.h ****         /** factor for adjustment before and after callback for hardware that may have extra headro
  36:../libDaisy/src/hid/audio.h ****         float postgain;
  37:../libDaisy/src/hid/audio.h **** 
  38:../libDaisy/src/hid/audio.h ****         /** factor for additional one-sided compensation to audio path for hardware that may
  39:../libDaisy/src/hid/audio.h ****          *  have unequal input/output ranges
  40:../libDaisy/src/hid/audio.h ****          */
  41:../libDaisy/src/hid/audio.h ****         float output_compensation;
  42:../libDaisy/src/hid/audio.h **** 
  43:../libDaisy/src/hid/audio.h ****         /** Sets default values for config struct */
  44:../libDaisy/src/hid/audio.h ****         Config()
  45:../libDaisy/src/hid/audio.h ****         : blocksize(48),
  46:../libDaisy/src/hid/audio.h ****           samplerate(SaiHandle::Config::SampleRate::SAI_48KHZ),
  47:../libDaisy/src/hid/audio.h ****           postgain(1.f),
  48:../libDaisy/src/hid/audio.h ****           output_compensation(1.f)
  49:../libDaisy/src/hid/audio.h ****         {
  50:../libDaisy/src/hid/audio.h ****         }
  51:../libDaisy/src/hid/audio.h ****     };
  52:../libDaisy/src/hid/audio.h **** 
  53:../libDaisy/src/hid/audio.h ****     enum class Result
  54:../libDaisy/src/hid/audio.h ****     {
  55:../libDaisy/src/hid/audio.h ****         OK,
  56:../libDaisy/src/hid/audio.h ****         ERR,
  57:../libDaisy/src/hid/audio.h ****     };
  58:../libDaisy/src/hid/audio.h **** 
  59:../libDaisy/src/hid/audio.h ****     /** Non-Interleaving input buffer
  60:../libDaisy/src/hid/audio.h ****      * Buffer arranged by float[chn][sample] 
  61:../libDaisy/src/hid/audio.h ****      * const so that the user can't modify the input
  62:../libDaisy/src/hid/audio.h ****      */
  63:../libDaisy/src/hid/audio.h ****     typedef const float* const* InputBuffer;
  64:../libDaisy/src/hid/audio.h **** 
  65:../libDaisy/src/hid/audio.h ****     /** Non-Interleaving output buffer
ARM GAS  /var/folders/1c/r153ml_17wn3q6lsykf2p9y00000gn/T//ccV3PK4F.s 			page 8


  66:../libDaisy/src/hid/audio.h ****      * Arranged by float[chn][sample] 
  67:../libDaisy/src/hid/audio.h ****      */
  68:../libDaisy/src/hid/audio.h ****     typedef float** OutputBuffer;
  69:../libDaisy/src/hid/audio.h **** 
  70:../libDaisy/src/hid/audio.h ****     /** Type for a Non-Interleaving audio callback 
  71:../libDaisy/src/hid/audio.h ****      * Non-Interleaving audio callbacks in daisy will be of this type
  72:../libDaisy/src/hid/audio.h ****      */
  73:../libDaisy/src/hid/audio.h ****     typedef void (*AudioCallback)(InputBuffer  in,
  74:../libDaisy/src/hid/audio.h ****                                   OutputBuffer out,
  75:../libDaisy/src/hid/audio.h ****                                   size_t       size);
  76:../libDaisy/src/hid/audio.h **** 
  77:../libDaisy/src/hid/audio.h ****     /** Interleaving Input buffer
  78:../libDaisy/src/hid/audio.h ****      ** audio is prepared as { L0, R0, L1, R1, . . . LN, RN }]
  79:../libDaisy/src/hid/audio.h ****      ** this is const, as the user shouldn't modify it
  80:../libDaisy/src/hid/audio.h ****     */
  81:../libDaisy/src/hid/audio.h ****     typedef const float* InterleavingInputBuffer;
  82:../libDaisy/src/hid/audio.h **** 
  83:../libDaisy/src/hid/audio.h ****     /** Interleaving Output buffer 
  84:../libDaisy/src/hid/audio.h ****      ** audio is prepared as { L0, R0, L1, R1, . . . LN, RN }
  85:../libDaisy/src/hid/audio.h ****     */
  86:../libDaisy/src/hid/audio.h ****     typedef float* InterleavingOutputBuffer;
  87:../libDaisy/src/hid/audio.h **** 
  88:../libDaisy/src/hid/audio.h ****     /** Interleaving Audio Callback 
  89:../libDaisy/src/hid/audio.h ****      * Interleaving audio callbacks in daisy must be of this type
  90:../libDaisy/src/hid/audio.h ****      */
  91:../libDaisy/src/hid/audio.h ****     typedef void (*InterleavingAudioCallback)(InterleavingInputBuffer  in,
  92:../libDaisy/src/hid/audio.h ****                                               InterleavingOutputBuffer out,
  93:../libDaisy/src/hid/audio.h ****                                               size_t                   size);
  94:../libDaisy/src/hid/audio.h **** 
  95:../libDaisy/src/hid/audio.h ****     AudioHandle() : pimpl_(nullptr) {}
  96:../libDaisy/src/hid/audio.h ****     ~AudioHandle() {}
  69              		.loc 7 96 5 is_stmt 1 view .LVU11
  70              		.loc 7 96 5 is_stmt 0 view .LVU12
  71              	.LBE192:
  72              	.LBB193:
  73              	.LBI193:
  74              		.file 8 "../libDaisy/src/sys/system.h"
   1:../libDaisy/src/sys/system.h **** #ifndef DSY_SYSTEM_H
   2:../libDaisy/src/sys/system.h **** #define DSY_SYSTEM_H
   3:../libDaisy/src/sys/system.h **** 
   4:../libDaisy/src/sys/system.h **** #ifndef UNIT_TEST // for unit tests, a dummy implementation is provided below
   5:../libDaisy/src/sys/system.h **** 
   6:../libDaisy/src/sys/system.h **** #include <cstdint>
   7:../libDaisy/src/sys/system.h **** #include "per/tim.h"
   8:../libDaisy/src/sys/system.h **** 
   9:../libDaisy/src/sys/system.h **** namespace daisy
  10:../libDaisy/src/sys/system.h **** {
  11:../libDaisy/src/sys/system.h **** /** A handle for interacting with the Core System.
  12:../libDaisy/src/sys/system.h ****  ** This includes the Clock tree, MPU, global DMA initialization,
  13:../libDaisy/src/sys/system.h ****  ** cache handling, and any other necessary global initiailzation
  14:../libDaisy/src/sys/system.h ****  **
  15:../libDaisy/src/sys/system.h ****  ** @author shensley
  16:../libDaisy/src/sys/system.h ****  ** @ingroup system
  17:../libDaisy/src/sys/system.h ****  */
  18:../libDaisy/src/sys/system.h **** class System
  19:../libDaisy/src/sys/system.h **** {
  20:../libDaisy/src/sys/system.h ****   public:
ARM GAS  /var/folders/1c/r153ml_17wn3q6lsykf2p9y00000gn/T//ccV3PK4F.s 			page 9


  21:../libDaisy/src/sys/system.h ****     /** Contains settings for initializing the System */
  22:../libDaisy/src/sys/system.h ****     struct Config
  23:../libDaisy/src/sys/system.h ****     {
  24:../libDaisy/src/sys/system.h ****         /** Specifies the system clock frequency that feeds APB/AHB clocks, etc. */
  25:../libDaisy/src/sys/system.h ****         enum class SysClkFreq
  26:../libDaisy/src/sys/system.h ****         {
  27:../libDaisy/src/sys/system.h ****             FREQ_400MHZ,
  28:../libDaisy/src/sys/system.h ****             FREQ_480MHZ,
  29:../libDaisy/src/sys/system.h ****         };
  30:../libDaisy/src/sys/system.h **** 
  31:../libDaisy/src/sys/system.h ****         /** Method to call on the struct to set to defaults
  32:../libDaisy/src/sys/system.h ****          ** CPU Freq set to 400MHz
  33:../libDaisy/src/sys/system.h ****          ** Cache Enabled
  34:../libDaisy/src/sys/system.h ****          ** */
  35:../libDaisy/src/sys/system.h ****         void Defaults()
  36:../libDaisy/src/sys/system.h ****         {
  37:../libDaisy/src/sys/system.h ****             cpu_freq    = SysClkFreq::FREQ_400MHZ;
  38:../libDaisy/src/sys/system.h ****             use_dcache  = true;
  39:../libDaisy/src/sys/system.h ****             use_icache  = true;
  40:../libDaisy/src/sys/system.h ****             skip_clocks = false;
  41:../libDaisy/src/sys/system.h ****         }
  42:../libDaisy/src/sys/system.h **** 
  43:../libDaisy/src/sys/system.h ****         /** Method to call on the struct to set to boost mode:
  44:../libDaisy/src/sys/system.h ****          ** CPU Freq set to 480MHz
  45:../libDaisy/src/sys/system.h ****          ** Cache Enabled
  46:../libDaisy/src/sys/system.h ****          ** */
  47:../libDaisy/src/sys/system.h ****         void Boost()
  48:../libDaisy/src/sys/system.h ****         {
  49:../libDaisy/src/sys/system.h ****             cpu_freq    = SysClkFreq::FREQ_480MHZ;
  50:../libDaisy/src/sys/system.h ****             use_dcache  = true;
  51:../libDaisy/src/sys/system.h ****             use_icache  = true;
  52:../libDaisy/src/sys/system.h ****             skip_clocks = false;
  53:../libDaisy/src/sys/system.h ****         }
  54:../libDaisy/src/sys/system.h **** 
  55:../libDaisy/src/sys/system.h ****         SysClkFreq cpu_freq;
  56:../libDaisy/src/sys/system.h ****         bool       use_dcache;
  57:../libDaisy/src/sys/system.h ****         bool       use_icache;
  58:../libDaisy/src/sys/system.h ****         bool       skip_clocks;
  59:../libDaisy/src/sys/system.h ****     };
  60:../libDaisy/src/sys/system.h **** 
  61:../libDaisy/src/sys/system.h ****     /** Describes the different regions of memory available to the Daisy */
  62:../libDaisy/src/sys/system.h ****     enum MemoryRegion
  63:../libDaisy/src/sys/system.h ****     {
  64:../libDaisy/src/sys/system.h ****         INTERNAL_FLASH = 0,
  65:../libDaisy/src/sys/system.h ****         ITCMRAM,
  66:../libDaisy/src/sys/system.h ****         DTCMRAM,
  67:../libDaisy/src/sys/system.h ****         SRAM_D1,
  68:../libDaisy/src/sys/system.h ****         SRAM_D2,
  69:../libDaisy/src/sys/system.h ****         SRAM_D3,
  70:../libDaisy/src/sys/system.h ****         SDRAM,
  71:../libDaisy/src/sys/system.h ****         QSPI,
  72:../libDaisy/src/sys/system.h ****         INVALID_ADDRESS,
  73:../libDaisy/src/sys/system.h ****     };
  74:../libDaisy/src/sys/system.h **** 
  75:../libDaisy/src/sys/system.h ****     /** Bootloader struct for controlling bootloading parameters */
  76:../libDaisy/src/sys/system.h ****     struct BootInfo
  77:../libDaisy/src/sys/system.h ****     {
ARM GAS  /var/folders/1c/r153ml_17wn3q6lsykf2p9y00000gn/T//ccV3PK4F.s 			page 10


  78:../libDaisy/src/sys/system.h ****         enum class Type : uint32_t
  79:../libDaisy/src/sys/system.h ****         {
  80:../libDaisy/src/sys/system.h ****             INVALID      = 0x00000000,
  81:../libDaisy/src/sys/system.h ****             JUMP         = 0xDEADBEEF,
  82:../libDaisy/src/sys/system.h ****             SKIP_TIMEOUT = 0x5AFEB007,
  83:../libDaisy/src/sys/system.h ****             INF_TIMEOUT  = 0xB0074EFA,
  84:../libDaisy/src/sys/system.h ****         } status;
  85:../libDaisy/src/sys/system.h ****         uint32_t data;
  86:../libDaisy/src/sys/system.h ****         enum class Version : uint32_t
  87:../libDaisy/src/sys/system.h ****         {
  88:../libDaisy/src/sys/system.h ****             LT_v6_0 = 0, // Less than v6.0
  89:../libDaisy/src/sys/system.h ****             NONE,        // No bootloader present
  90:../libDaisy/src/sys/system.h ****             v6_0,        // v6.0
  91:../libDaisy/src/sys/system.h ****             v6_1,        // v6.1 or greater
  92:../libDaisy/src/sys/system.h ****             LAST
  93:../libDaisy/src/sys/system.h ****         } version;
  94:../libDaisy/src/sys/system.h ****     };
  95:../libDaisy/src/sys/system.h **** 
  96:../libDaisy/src/sys/system.h ****     System() {}
  97:../libDaisy/src/sys/system.h ****     ~System() {}
  75              		.loc 8 97 5 is_stmt 1 view .LVU13
  76              		.loc 8 97 5 is_stmt 0 view .LVU14
  77              	.LBE193:
  78              	.LBE186:
  79              		.loc 2 65 26 view .LVU15
  80 0000 7047     		bx	lr
  81              		.cfi_endproc
  82              	.LFE2343:
  84              		.weak	_ZN5daisy8patch_sm12DaisyPatchSMD1Ev
  85              		.thumb_set _ZN5daisy8patch_sm12DaisyPatchSMD1Ev,_ZN5daisy8patch_sm12DaisyPatchSMD2Ev
  86 0002 00BF     		.section	.text._ZN7daisysp8ReverbScD2Ev,"axG",%progbits,_ZN7daisysp8ReverbScD5Ev,comdat
  87              		.align	1
  88              		.p2align 2,,3
  89              		.weak	_ZN7daisysp8ReverbScD2Ev
  90              		.syntax unified
  91              		.thumb
  92              		.thumb_func
  94              	_ZN7daisysp8ReverbScD2Ev:
  95              	.LVL1:
  96              	.LFB4700:
  97              		.file 9 "../DaisySP/DaisySP-LGPL/Source/Effects/reverbsc.h"
   1:../DaisySP/DaisySP-LGPL/Source/Effects/reverbsc.h **** /*
   2:../DaisySP/DaisySP-LGPL/Source/Effects/reverbsc.h **** Copyright (c) 2023 Electrosmith, Corp, Sean Costello, Istvan Varga, Paul Batchelor
   3:../DaisySP/DaisySP-LGPL/Source/Effects/reverbsc.h **** 
   4:../DaisySP/DaisySP-LGPL/Source/Effects/reverbsc.h **** Use of this source code is governed by the LGPL V2.1
   5:../DaisySP/DaisySP-LGPL/Source/Effects/reverbsc.h **** license that can be found in the LICENSE file or at
   6:../DaisySP/DaisySP-LGPL/Source/Effects/reverbsc.h **** https://opensource.org/license/lgpl-2-1/
   7:../DaisySP/DaisySP-LGPL/Source/Effects/reverbsc.h **** */
   8:../DaisySP/DaisySP-LGPL/Source/Effects/reverbsc.h **** 
   9:../DaisySP/DaisySP-LGPL/Source/Effects/reverbsc.h **** #pragma once
  10:../DaisySP/DaisySP-LGPL/Source/Effects/reverbsc.h **** #ifndef DSYSP_REVERBSC_H
  11:../DaisySP/DaisySP-LGPL/Source/Effects/reverbsc.h **** #define DSYSP_REVERBSC_H
  12:../DaisySP/DaisySP-LGPL/Source/Effects/reverbsc.h **** 
  13:../DaisySP/DaisySP-LGPL/Source/Effects/reverbsc.h **** #define DSY_REVERBSC_MAX_SIZE 98936
  14:../DaisySP/DaisySP-LGPL/Source/Effects/reverbsc.h **** 
  15:../DaisySP/DaisySP-LGPL/Source/Effects/reverbsc.h **** namespace daisysp
  16:../DaisySP/DaisySP-LGPL/Source/Effects/reverbsc.h **** {
ARM GAS  /var/folders/1c/r153ml_17wn3q6lsykf2p9y00000gn/T//ccV3PK4F.s 			page 11


  17:../DaisySP/DaisySP-LGPL/Source/Effects/reverbsc.h **** /**Delay line for internal reverb use
  18:../DaisySP/DaisySP-LGPL/Source/Effects/reverbsc.h **** */
  19:../DaisySP/DaisySP-LGPL/Source/Effects/reverbsc.h **** typedef struct
  20:../DaisySP/DaisySP-LGPL/Source/Effects/reverbsc.h **** {
  21:../DaisySP/DaisySP-LGPL/Source/Effects/reverbsc.h ****     int    write_pos;         /**< write position */
  22:../DaisySP/DaisySP-LGPL/Source/Effects/reverbsc.h ****     int    buffer_size;       /**< buffer size */
  23:../DaisySP/DaisySP-LGPL/Source/Effects/reverbsc.h ****     int    read_pos;          /**< read position */
  24:../DaisySP/DaisySP-LGPL/Source/Effects/reverbsc.h ****     int    read_pos_frac;     /**< fractional component of read pos */
  25:../DaisySP/DaisySP-LGPL/Source/Effects/reverbsc.h ****     int    read_pos_frac_inc; /**< increment for fractional */
  26:../DaisySP/DaisySP-LGPL/Source/Effects/reverbsc.h ****     int    dummy;             /**<  dummy var */
  27:../DaisySP/DaisySP-LGPL/Source/Effects/reverbsc.h ****     int    seed_val;          /**< randseed */
  28:../DaisySP/DaisySP-LGPL/Source/Effects/reverbsc.h ****     int    rand_line_cnt;     /**< number of random lines */
  29:../DaisySP/DaisySP-LGPL/Source/Effects/reverbsc.h ****     float  filter_state;      /**< state of filter */
  30:../DaisySP/DaisySP-LGPL/Source/Effects/reverbsc.h ****     float *buf;               /**< buffer ptr */
  31:../DaisySP/DaisySP-LGPL/Source/Effects/reverbsc.h **** } ReverbScDl;
  32:../DaisySP/DaisySP-LGPL/Source/Effects/reverbsc.h **** 
  33:../DaisySP/DaisySP-LGPL/Source/Effects/reverbsc.h **** /** Stereo Reverb */
  34:../DaisySP/DaisySP-LGPL/Source/Effects/reverbsc.h **** class ReverbSc
  35:../DaisySP/DaisySP-LGPL/Source/Effects/reverbsc.h **** {
  36:../DaisySP/DaisySP-LGPL/Source/Effects/reverbsc.h ****   public:
  37:../DaisySP/DaisySP-LGPL/Source/Effects/reverbsc.h ****     ReverbSc() {}
  38:../DaisySP/DaisySP-LGPL/Source/Effects/reverbsc.h ****     ~ReverbSc() {}
  98              		.loc 9 38 5 is_stmt 1 view -0
  99              		.cfi_startproc
 100              		@ args = 0, pretend = 0, frame = 0
 101              		@ frame_needed = 0, uses_anonymous_args = 0
 102              		@ link register save eliminated.
 103              		.loc 9 38 18 is_stmt 0 view .LVU17
 104 0000 7047     		bx	lr
 105              		.cfi_endproc
 106              	.LFE4700:
 108              		.weak	_ZN7daisysp8ReverbScD1Ev
 109              		.thumb_set _ZN7daisysp8ReverbScD1Ev,_ZN7daisysp8ReverbScD2Ev
 110 0002 00BF     		.section	.text._Z13AudioCallbackPKPKfPPfj,"ax",%progbits
 111              		.align	1
 112              		.p2align 2,,3
 113              		.global	_Z13AudioCallbackPKPKfPPfj
 114              		.syntax unified
 115              		.thumb
 116              		.thumb_func
 118              	_Z13AudioCallbackPKPKfPPfj:
 119              	.LVL2:
 120              	.LFB4707:
   1:reverb.cpp    **** // reverb.cpp
   2:reverb.cpp    **** // A simple stereo reverb for the Electrosmith patch.Init()
   3:reverb.cpp    **** // Uses the ReverbSc algorithm from DaisySP-LGPL.
   4:reverb.cpp    **** //
   5:reverb.cpp    **** // CONTROLS:
   6:reverb.cpp    **** //   Knob 1 + CV 1: Reverb time (power curve — long tails in upper range)
   7:reverb.cpp    **** //   Knob 2 + CV 2: Tone — standalone one-pole filter on wet signal
   8:reverb.cpp    **** //                  Full CCW = dark/muffled, Full CW = bright/open
   9:reverb.cpp    **** //   Knob 3 + CV 3: Wet/dry mix (full CCW = dry, full CW = wet)
  10:reverb.cpp    **** //   Knob 4 + CV 4: Pre-delay (0ms to 100ms)
  11:reverb.cpp    **** //
  12:reverb.cpp    **** // AUDIO BEHAVIOR:
  13:reverb.cpp    **** //   - If only the LEFT input is patched, right channel mirrors left (mono mode)
  14:reverb.cpp    **** //   - If both inputs are patched, runs in true stereo
ARM GAS  /var/folders/1c/r153ml_17wn3q6lsykf2p9y00000gn/T//ccV3PK4F.s 			page 12


  15:reverb.cpp    **** //
  16:reverb.cpp    **** // LED BEHAVIOR:
  17:reverb.cpp    **** //   - Front panel red LED lights when input signal exceeds kPeakThreshold
  18:reverb.cpp    **** //   - Stays on for kPeakHoldTicks callbacks then turns off
  19:reverb.cpp    **** //   - Tune kPeakThreshold: raise if always on, lower if never lights
  20:reverb.cpp    **** //
  21:reverb.cpp    **** // BLOCK SIZE:
  22:reverb.cpp    **** //   - Set to 4 samples to eliminate zipper/whine noise on knob movement
  23:reverb.cpp    **** 
  24:reverb.cpp    **** #include "daisy_patch_sm.h"
  25:reverb.cpp    **** #include "daisysp.h"
  26:reverb.cpp    **** #include "../DaisySP/DaisySP-LGPL/Source/Effects/reverbsc.h"
  27:reverb.cpp    **** 
  28:reverb.cpp    **** using namespace daisy;
  29:reverb.cpp    **** using namespace patch_sm;
  30:reverb.cpp    **** using namespace daisysp;
  31:reverb.cpp    **** 
  32:reverb.cpp    **** DaisyPatchSM hw;
  33:reverb.cpp    **** ReverbSc reverb;
  34:reverb.cpp    **** 
  35:reverb.cpp    **** // --- Pre-delay circular buffer ---
  36:reverb.cpp    **** // 100ms at 48kHz = 4800 samples per channel
  37:reverb.cpp    **** static const int kPreDelayMaxSamples = 4800;
  38:reverb.cpp    **** float preDelayBufL[kPreDelayMaxSamples];
  39:reverb.cpp    **** float preDelayBufR[kPreDelayMaxSamples];
  40:reverb.cpp    **** int preDelayWrite = 0;
  41:reverb.cpp    **** 
  42:reverb.cpp    **** // --- Tone filter state ---
  43:reverb.cpp    **** // One-pole lowpass filter applied to the wet reverb signal.
  44:reverb.cpp    **** // This sits outside ReverbSc so we have full, predictable control.
  45:reverb.cpp    **** // Two state variables, one per channel, persist between callbacks.
  46:reverb.cpp    **** float toneFilterStateL = 0.0f;
  47:reverb.cpp    **** float toneFilterStateR = 0.0f;
  48:reverb.cpp    **** 
  49:reverb.cpp    **** // --- LED settings ---
  50:reverb.cpp    **** volatile float ledVoltage = 0.0f;
  51:reverb.cpp    **** 
  52:reverb.cpp    **** // --- Helpers ---
  53:reverb.cpp    **** float ReadKnob(int adcIndex)
  54:reverb.cpp    **** {
  55:reverb.cpp    ****     return fclamp(hw.GetAdcValue(adcIndex), 0.0f, 1.0f);
  56:reverb.cpp    **** }
  57:reverb.cpp    **** 
  58:reverb.cpp    **** float ReadCV(int cvIndex)
  59:reverb.cpp    **** {
  60:reverb.cpp    ****     return fclamp(hw.GetAdcValue(cvIndex), 0.0f, 1.0f);
  61:reverb.cpp    **** }
  62:reverb.cpp    **** 
  63:reverb.cpp    **** // Combines knob + CV. CV is centered so 0V = no offset.
  64:reverb.cpp    **** float ReadKnobWithCV(int knobAdc, int cvAdc)
  65:reverb.cpp    **** {
  66:reverb.cpp    ****     float knob = ReadKnob(knobAdc);
  67:reverb.cpp    ****     float cv = ReadCV(cvAdc) - 0.5f;
  68:reverb.cpp    ****     return fclamp(knob + cv, 0.0f, 1.0f);
  69:reverb.cpp    **** }
  70:reverb.cpp    **** 
  71:reverb.cpp    **** void AudioCallback(AudioHandle::InputBuffer in,
ARM GAS  /var/folders/1c/r153ml_17wn3q6lsykf2p9y00000gn/T//ccV3PK4F.s 			page 13


  72:reverb.cpp    ****                    AudioHandle::OutputBuffer out,
  73:reverb.cpp    ****                    size_t size)
  74:reverb.cpp    **** {
 121              		.loc 1 74 1 is_stmt 1 view -0
 122              		.cfi_startproc
 123              		@ args = 0, pretend = 0, frame = 32
 124              		@ frame_needed = 0, uses_anonymous_args = 0
  75:reverb.cpp    ****     hw.ProcessAllControls();
 125              		.loc 1 75 5 view .LVU19
 126              	.LBB286:
 127              	.LBI286:
  66:../libDaisy/src/daisy_patch_sm.h **** 
  67:../libDaisy/src/daisy_patch_sm.h ****         /** Initializes the memories, and core peripherals for the Daisy Patch SM */
  68:../libDaisy/src/daisy_patch_sm.h ****         void Init();
  69:../libDaisy/src/daisy_patch_sm.h **** 
  70:../libDaisy/src/daisy_patch_sm.h ****         /** Starts a non-interleaving audio callback */
  71:../libDaisy/src/daisy_patch_sm.h ****         void StartAudio(AudioHandle::AudioCallback cb);
  72:../libDaisy/src/daisy_patch_sm.h **** 
  73:../libDaisy/src/daisy_patch_sm.h ****         /** Starts an interleaving audio callback */
  74:../libDaisy/src/daisy_patch_sm.h ****         void StartAudio(AudioHandle::InterleavingAudioCallback cb);
  75:../libDaisy/src/daisy_patch_sm.h **** 
  76:../libDaisy/src/daisy_patch_sm.h ****         /** Changes the callback that is executing.
  77:../libDaisy/src/daisy_patch_sm.h ****          *  This may cause clicks if done while audio is processing.
  78:../libDaisy/src/daisy_patch_sm.h ****          */
  79:../libDaisy/src/daisy_patch_sm.h ****         void ChangeAudioCallback(AudioHandle::AudioCallback cb);
  80:../libDaisy/src/daisy_patch_sm.h **** 
  81:../libDaisy/src/daisy_patch_sm.h ****         /** Changes the callback that is executing.
  82:../libDaisy/src/daisy_patch_sm.h ****          *  This may cause clicks if done while audio is processing.
  83:../libDaisy/src/daisy_patch_sm.h ****          */
  84:../libDaisy/src/daisy_patch_sm.h ****         void ChangeAudioCallback(AudioHandle::InterleavingAudioCallback cb);
  85:../libDaisy/src/daisy_patch_sm.h **** 
  86:../libDaisy/src/daisy_patch_sm.h ****         /** Stops the transmission of audio. */
  87:../libDaisy/src/daisy_patch_sm.h ****         void StopAudio();
  88:../libDaisy/src/daisy_patch_sm.h **** 
  89:../libDaisy/src/daisy_patch_sm.h ****         /** Sets the number of samples processed in an audio callback. 
  90:../libDaisy/src/daisy_patch_sm.h ****          *  This will only take effect on the next invocation of `StartAudio`
  91:../libDaisy/src/daisy_patch_sm.h ****          */
  92:../libDaisy/src/daisy_patch_sm.h ****         void SetAudioBlockSize(size_t size);
  93:../libDaisy/src/daisy_patch_sm.h **** 
  94:../libDaisy/src/daisy_patch_sm.h ****         /** Sets the samplerate for the audio engine 
  95:../libDaisy/src/daisy_patch_sm.h ****          *  This will set it to the closest valid samplerate. Options being:
  96:../libDaisy/src/daisy_patch_sm.h ****          *  8kHz, 16kHz, 32kHz, 48kHz, and 96kHz
  97:../libDaisy/src/daisy_patch_sm.h ****          */
  98:../libDaisy/src/daisy_patch_sm.h ****         void SetAudioSampleRate(float sr);
  99:../libDaisy/src/daisy_patch_sm.h **** 
 100:../libDaisy/src/daisy_patch_sm.h ****         void SetAudioSampleRate(SaiHandle::Config::SampleRate sample_rate);
 101:../libDaisy/src/daisy_patch_sm.h **** 
 102:../libDaisy/src/daisy_patch_sm.h ****         /** Returns the number of samples processed in an audio callback */
 103:../libDaisy/src/daisy_patch_sm.h ****         size_t AudioBlockSize();
 104:../libDaisy/src/daisy_patch_sm.h **** 
 105:../libDaisy/src/daisy_patch_sm.h ****         /** Returns the audio engine's samplerate in Hz */
 106:../libDaisy/src/daisy_patch_sm.h ****         float AudioSampleRate();
 107:../libDaisy/src/daisy_patch_sm.h **** 
 108:../libDaisy/src/daisy_patch_sm.h ****         /** Returns the rate at which the audio callback will be called in Hz */
 109:../libDaisy/src/daisy_patch_sm.h ****         float AudioCallbackRate();
 110:../libDaisy/src/daisy_patch_sm.h **** 
 111:../libDaisy/src/daisy_patch_sm.h ****         /** Starts the Control ADCs 
ARM GAS  /var/folders/1c/r153ml_17wn3q6lsykf2p9y00000gn/T//ccV3PK4F.s 			page 14


 112:../libDaisy/src/daisy_patch_sm.h ****          * 
 113:../libDaisy/src/daisy_patch_sm.h ****          *  This is started automatically when Init() is called.
 114:../libDaisy/src/daisy_patch_sm.h ****          */
 115:../libDaisy/src/daisy_patch_sm.h ****         void StartAdc();
 116:../libDaisy/src/daisy_patch_sm.h **** 
 117:../libDaisy/src/daisy_patch_sm.h ****         /** Stops the Control ADCs */
 118:../libDaisy/src/daisy_patch_sm.h ****         void StopAdc();
 119:../libDaisy/src/daisy_patch_sm.h **** 
 120:../libDaisy/src/daisy_patch_sm.h ****         /** Reads and filters all of the analog control inputs */
 121:../libDaisy/src/daisy_patch_sm.h ****         void ProcessAnalogControls();
 122:../libDaisy/src/daisy_patch_sm.h **** 
 123:../libDaisy/src/daisy_patch_sm.h ****         /** Reads and debounces any of the digital control inputs 
 124:../libDaisy/src/daisy_patch_sm.h ****          *  This does nothing on this board at this time.
 125:../libDaisy/src/daisy_patch_sm.h ****          */
 126:../libDaisy/src/daisy_patch_sm.h ****         void ProcessDigitalControls();
 127:../libDaisy/src/daisy_patch_sm.h **** 
 128:../libDaisy/src/daisy_patch_sm.h ****         /** Does both of the above */
 129:../libDaisy/src/daisy_patch_sm.h ****         void ProcessAllControls()
 128              		.loc 2 129 14 view .LVU20
 129              	.LBB287:
 130:../libDaisy/src/daisy_patch_sm.h ****         {
 131:../libDaisy/src/daisy_patch_sm.h ****             ProcessAnalogControls();
 130              		.loc 2 131 13 view .LVU21
 131              	.LBE287:
 132              	.LBE286:
  74:reverb.cpp    ****     hw.ProcessAllControls();
 133              		.loc 1 74 1 is_stmt 0 view .LVU22
 134 0000 2DE9F04F 		push	{r4, r5, r6, r7, r8, r9, r10, fp, lr}
 135              		.cfi_def_cfa_offset 36
 136              		.cfi_offset 4, -36
 137              		.cfi_offset 5, -32
 138              		.cfi_offset 6, -28
 139              		.cfi_offset 7, -24
 140              		.cfi_offset 8, -20
 141              		.cfi_offset 9, -16
 142              		.cfi_offset 10, -12
 143              		.cfi_offset 11, -8
 144              		.cfi_offset 14, -4
 145 0004 2DED088B 		vpush.64	{d8, d9, d10, d11}
 146              		.cfi_def_cfa_offset 68
 147              		.cfi_offset 80, -68
 148              		.cfi_offset 81, -64
 149              		.cfi_offset 82, -60
 150              		.cfi_offset 83, -56
 151              		.cfi_offset 84, -52
 152              		.cfi_offset 85, -48
 153              		.cfi_offset 86, -44
 154              		.cfi_offset 87, -40
 155 0008 8BB0     		sub	sp, sp, #44
 156              		.cfi_def_cfa_offset 112
  74:reverb.cpp    ****     hw.ProcessAllControls();
 157              		.loc 1 74 1 view .LVU23
 158 000a 0746     		mov	r7, r0
 159              	.LBB291:
 160              	.LBB288:
 161              		.loc 2 131 34 view .LVU24
 162 000c AB48     		ldr	r0, .L12
ARM GAS  /var/folders/1c/r153ml_17wn3q6lsykf2p9y00000gn/T//ccV3PK4F.s 			page 15


 163              	.LVL3:
 164              		.loc 2 131 34 view .LVU25
 165              	.LBE288:
 166              	.LBE291:
  74:reverb.cpp    ****     hw.ProcessAllControls();
 167              		.loc 1 74 1 view .LVU26
 168 000e 1446     		mov	r4, r2
 169 0010 0392     		str	r2, [sp, #12]
 170              	.LBB292:
 171              	.LBB293:
  67:reverb.cpp    ****     return fclamp(knob + cv, 0.0f, 1.0f);
 172              		.loc 1 67 32 discriminator 1 view .LVU27
 173 0012 B6EE009A 		vmov.f32	s18, #5.0e-1
 174              	.LBE293:
 175              	.LBE292:
  74:reverb.cpp    ****     hw.ProcessAllControls();
 176              		.loc 1 74 1 view .LVU28
 177 0016 8846     		mov	r8, r1
 178              	.LBB346:
 179              	.LBB289:
 180              		.loc 2 131 34 view .LVU29
 181 0018 FFF7FEFF 		bl	_ZN5daisy8patch_sm12DaisyPatchSM21ProcessAnalogControlsEv
 182              	.LVL4:
 132:../libDaisy/src/daisy_patch_sm.h ****             ProcessDigitalControls();
 183              		.loc 2 132 13 is_stmt 1 view .LVU30
 184              		.loc 2 132 35 is_stmt 0 view .LVU31
 185 001c A748     		ldr	r0, .L12
 186              	.LBE289:
 187              	.LBE346:
 188              	.LBB347:
 189              	.LBB342:
 190              	.LBB294:
 191              	.LBB295:
 192              	.LBB296:
 193              	.LBB297:
 194              	.LBB298:
 195              		.file 10 "../DaisySP/Source/Utility/dsp.h"
   1:../DaisySP/Source/Utility/dsp.h **** /*
   2:../DaisySP/Source/Utility/dsp.h **** Copyright (c) 2020 Electrosmith, Corp, Emilie Gillet
   3:../DaisySP/Source/Utility/dsp.h **** 
   4:../DaisySP/Source/Utility/dsp.h **** Use of this source code is governed by an MIT-style
   5:../DaisySP/Source/Utility/dsp.h **** license that can be found in the LICENSE file or at
   6:../DaisySP/Source/Utility/dsp.h **** https://opensource.org/licenses/MIT.
   7:../DaisySP/Source/Utility/dsp.h **** */
   8:../DaisySP/Source/Utility/dsp.h **** 
   9:../DaisySP/Source/Utility/dsp.h **** /** Helpful defines, functions, and other utilities for use in/with daisysp modules.
  10:../DaisySP/Source/Utility/dsp.h **** */
  11:../DaisySP/Source/Utility/dsp.h **** #pragma once
  12:../DaisySP/Source/Utility/dsp.h **** #ifndef DSY_CORE_DSP
  13:../DaisySP/Source/Utility/dsp.h **** #define DSY_CORE_DSP
  14:../DaisySP/Source/Utility/dsp.h **** #include <cassert>
  15:../DaisySP/Source/Utility/dsp.h **** #include <cstdint>
  16:../DaisySP/Source/Utility/dsp.h **** #include <random>
  17:../DaisySP/Source/Utility/dsp.h **** #include <cmath>
  18:../DaisySP/Source/Utility/dsp.h **** 
  19:../DaisySP/Source/Utility/dsp.h **** /** PIs
  20:../DaisySP/Source/Utility/dsp.h **** */
ARM GAS  /var/folders/1c/r153ml_17wn3q6lsykf2p9y00000gn/T//ccV3PK4F.s 			page 16


  21:../DaisySP/Source/Utility/dsp.h **** #define PI_F 3.1415927410125732421875f
  22:../DaisySP/Source/Utility/dsp.h **** #define TWOPI_F (2.0f * PI_F)
  23:../DaisySP/Source/Utility/dsp.h **** #define HALFPI_F (PI_F * 0.5f)
  24:../DaisySP/Source/Utility/dsp.h **** #define DSY_MIN(in, mn) (in < mn ? in : mn)
  25:../DaisySP/Source/Utility/dsp.h **** #define DSY_MAX(in, mx) (in > mx ? in : mx)
  26:../DaisySP/Source/Utility/dsp.h **** #define DSY_CLAMP(in, mn, mx) (DSY_MIN(DSY_MAX(in, mn), mx))
  27:../DaisySP/Source/Utility/dsp.h **** #define DSY_COUNTOF(_arr) (sizeof(_arr) / sizeof(_arr[0]))
  28:../DaisySP/Source/Utility/dsp.h **** 
  29:../DaisySP/Source/Utility/dsp.h **** namespace daisysp
  30:../DaisySP/Source/Utility/dsp.h **** {
  31:../DaisySP/Source/Utility/dsp.h **** //Avoids division for random floats. e.g. rand() * kRandFrac
  32:../DaisySP/Source/Utility/dsp.h **** static constexpr float kRandFrac = 1.f / (float)RAND_MAX;
  33:../DaisySP/Source/Utility/dsp.h **** 
  34:../DaisySP/Source/Utility/dsp.h **** //Convert from semitones to other units. e.g. 2 ^ (kOneTwelfth * x)
  35:../DaisySP/Source/Utility/dsp.h **** static constexpr float kOneTwelfth = 1.f / 12.f;
  36:../DaisySP/Source/Utility/dsp.h **** 
  37:../DaisySP/Source/Utility/dsp.h **** /** efficient floating point min/max
  38:../DaisySP/Source/Utility/dsp.h **** c/o stephen mccaul
  39:../DaisySP/Source/Utility/dsp.h **** */
  40:../DaisySP/Source/Utility/dsp.h **** inline float fmax(float a, float b)
  41:../DaisySP/Source/Utility/dsp.h **** {
  42:../DaisySP/Source/Utility/dsp.h ****     float r;
  43:../DaisySP/Source/Utility/dsp.h **** #ifdef __arm__
  44:../DaisySP/Source/Utility/dsp.h ****     asm("vmaxnm.f32 %[d], %[n], %[m]" : [d] "=t"(r) : [n] "t"(a), [m] "t"(b) :);
  45:../DaisySP/Source/Utility/dsp.h **** #else
  46:../DaisySP/Source/Utility/dsp.h ****     r = (a > b) ? a : b;
  47:../DaisySP/Source/Utility/dsp.h **** #endif // __arm__
  48:../DaisySP/Source/Utility/dsp.h ****     return r;
  49:../DaisySP/Source/Utility/dsp.h **** }
  50:../DaisySP/Source/Utility/dsp.h **** 
  51:../DaisySP/Source/Utility/dsp.h **** inline float fmin(float a, float b)
  52:../DaisySP/Source/Utility/dsp.h **** {
  53:../DaisySP/Source/Utility/dsp.h ****     float r;
  54:../DaisySP/Source/Utility/dsp.h **** #ifdef __arm__
  55:../DaisySP/Source/Utility/dsp.h ****     asm("vminnm.f32 %[d], %[n], %[m]" : [d] "=t"(r) : [n] "t"(a), [m] "t"(b) :);
 196              		.loc 10 55 5 view .LVU32
 197 001e F7EE008A 		vmov.f32	s17, #1.0e+0
 198              	.LBE298:
 199              	.LBE297:
 200              	.LBE296:
 201              	.LBE295:
 202              	.LBE294:
 203              	.LBE342:
 204              	.LBE347:
 205              	.LBB348:
 206              	.LBB290:
 207              		.loc 2 132 35 view .LVU33
 208 0022 FFF7FEFF 		bl	_ZN5daisy8patch_sm12DaisyPatchSM22ProcessDigitalControlsEv
 209              	.LVL5:
 210              		.loc 2 132 35 view .LVU34
 211              	.LBE290:
 212              	.LBE348:
  76:reverb.cpp    **** 
  77:reverb.cpp    ****     // Knob 1: Reverb time
  78:reverb.cpp    ****     // Power curve: short rooms in lower quarter, near-infinite in upper quarter
  79:reverb.cpp    ****     float knob1 = ReadKnobWithCV(ADC_9, CV_1);
 213              		.loc 1 79 5 is_stmt 1 view .LVU35
ARM GAS  /var/folders/1c/r153ml_17wn3q6lsykf2p9y00000gn/T//ccV3PK4F.s 			page 17


 214              	.LBB349:
 215              	.LBI292:
  64:reverb.cpp    **** {
 216              		.loc 1 64 7 view .LVU36
 217              	.LBB343:
  66:reverb.cpp    ****     float cv = ReadCV(cvAdc) - 0.5f;
 218              		.loc 1 66 5 view .LVU37
 219              	.LBB313:
 220              	.LBI294:
  53:reverb.cpp    **** {
 221              		.loc 1 53 7 view .LVU38
 222              	.LBB310:
  55:reverb.cpp    **** }
 223              		.loc 1 55 5 view .LVU39
  55:reverb.cpp    **** }
 224              		.loc 1 55 18 is_stmt 0 view .LVU40
 225 0026 0821     		movs	r1, #8
 226 0028 A448     		ldr	r0, .L12
 227 002a FFF7FEFF 		bl	_ZN5daisy8patch_sm12DaisyPatchSM11GetAdcValueEi
 228              	.LVL6:
 229              	.LBB307:
 230              	.LBI296:
  56:../DaisySP/Source/Utility/dsp.h **** #else
  57:../DaisySP/Source/Utility/dsp.h ****     r = (a < b) ? a : b;
  58:../DaisySP/Source/Utility/dsp.h **** #endif // __arm__
  59:../DaisySP/Source/Utility/dsp.h ****     return r;
  60:../DaisySP/Source/Utility/dsp.h **** }
  61:../DaisySP/Source/Utility/dsp.h **** 
  62:../DaisySP/Source/Utility/dsp.h **** /** quick fp clamp
  63:../DaisySP/Source/Utility/dsp.h **** */
  64:../DaisySP/Source/Utility/dsp.h **** inline float fclamp(float in, float min, float max)
 231              		.loc 10 64 14 is_stmt 1 view .LVU41
  65:../DaisySP/Source/Utility/dsp.h **** {
  66:../DaisySP/Source/Utility/dsp.h ****     return fmin(fmax(in, min), max);
 232              		.loc 10 66 5 view .LVU42
 233              	.LBB301:
 234              	.LBI301:
  40:../DaisySP/Source/Utility/dsp.h **** {
 235              		.loc 10 40 14 view .LVU43
 236              	.LBB302:
  42:../DaisySP/Source/Utility/dsp.h **** #ifdef __arm__
 237              		.loc 10 42 5 view .LVU44
  44:../DaisySP/Source/Utility/dsp.h **** #else
 238              		.loc 10 44 5 view .LVU45
 239              	.LBE302:
 240              	.LBE301:
 241              	.LBE307:
 242              	.LBE310:
 243              	.LBE313:
 244              	.LBB314:
 245              	.LBB315:
  60:reverb.cpp    **** }
 246              		.loc 1 60 18 is_stmt 0 view .LVU46
 247 002e 0021     		movs	r1, #0
 248 0030 A248     		ldr	r0, .L12
 249              	.LBE315:
 250              	.LBE314:
ARM GAS  /var/folders/1c/r153ml_17wn3q6lsykf2p9y00000gn/T//ccV3PK4F.s 			page 18


 251              	.LBB329:
 252              	.LBB311:
 253              	.LBB308:
 254              	.LBB304:
 255              	.LBB303:
  44:../DaisySP/Source/Utility/dsp.h **** #else
 256              		.loc 10 44 5 view .LVU47
 257 0032 DFEDA39A 		vldr.32	s19, .L12+4
 258              		.syntax unified
 259              	@ 44 "../DaisySP/Source/Utility/dsp.h" 1
 260 0036 80FE298A 		vmaxnm.f32 s16, s0, s19
 261              	@ 0 "" 2
  48:../DaisySP/Source/Utility/dsp.h **** }
 262              		.loc 10 48 5 is_stmt 1 view .LVU48
 263              	.LVL7:
  48:../DaisySP/Source/Utility/dsp.h **** }
 264              		.loc 10 48 5 is_stmt 0 view .LVU49
 265              		.thumb
 266              		.syntax unified
 267              	.LBE303:
 268              	.LBE304:
 269              	.LBB305:
 270              	.LBI297:
  51:../DaisySP/Source/Utility/dsp.h **** {
 271              		.loc 10 51 14 is_stmt 1 view .LVU50
 272              	.LBB299:
  53:../DaisySP/Source/Utility/dsp.h **** #ifdef __arm__
 273              		.loc 10 53 5 view .LVU51
  55:../DaisySP/Source/Utility/dsp.h **** #else
 274              		.loc 10 55 5 view .LVU52
 275              	.LBE299:
 276              	.LBE305:
 277              	.LBE308:
 278              	.LBE311:
 279              	.LBE329:
 280              	.LBB330:
 281              	.LBB326:
  60:reverb.cpp    **** }
 282              		.loc 1 60 18 is_stmt 0 view .LVU53
 283 003a FFF7FEFF 		bl	_ZN5daisy8patch_sm12DaisyPatchSM11GetAdcValueEi
 284              	.LVL8:
  60:reverb.cpp    **** }
 285              		.loc 1 60 18 view .LVU54
 286              	.LBE326:
 287              	.LBE330:
 288              	.LBE343:
 289              	.LBE349:
  80:reverb.cpp    ****     float feedback = 0.3f + powf(knob1, 0.3f) * 0.699f;
 290              		.loc 1 80 33 view .LVU55
 291 003e 9FEDA1BA 		vldr.32	s22, .L12+8
 292              	.LBB350:
 293              	.LBB344:
 294              	.LBB331:
 295              	.LBB327:
 296              	.LBB316:
 297              	.LBB317:
 298              	.LBB318:
ARM GAS  /var/folders/1c/r153ml_17wn3q6lsykf2p9y00000gn/T//ccV3PK4F.s 			page 19


  44:../DaisySP/Source/Utility/dsp.h **** #else
 299              		.loc 10 44 5 view .LVU56
 300              		.syntax unified
 301              	@ 44 "../DaisySP/Source/Utility/dsp.h" 1
 302 0042 80FE290A 		vmaxnm.f32 s0, s0, s19
 303              	@ 0 "" 2
 304              		.thumb
 305              		.syntax unified
 306              	.LBE318:
 307              	.LBE317:
 308              	.LBB320:
 309              	.LBB321:
  55:../DaisySP/Source/Utility/dsp.h **** #else
 310              		.loc 10 55 5 view .LVU57
 311              		.syntax unified
 312              	@ 55 "../DaisySP/Source/Utility/dsp.h" 1
 313 0046 80FE680A 		vminnm.f32 s0, s0, s17
 314              	@ 0 "" 2
 315              		.thumb
 316              		.syntax unified
 317              	.LBE321:
 318              	.LBE320:
 319              	.LBE316:
 320              	.LBE327:
 321              	.LBE331:
  67:reverb.cpp    ****     return fclamp(knob + cv, 0.0f, 1.0f);
 322              		.loc 1 67 32 discriminator 1 view .LVU58
 323 004a 30EE490A 		vsub.f32	s0, s0, s18
 324              	.LBE344:
 325              	.LBE350:
 326              		.loc 1 80 33 view .LVU59
 327 004e F0EE4B0A 		vmov.f32	s1, s22
 328              	.LBB351:
 329              	.LBB345:
 330              	.LBB332:
 331              	.LBB312:
 332              	.LBB309:
 333              	.LBB306:
 334              	.LBB300:
  55:../DaisySP/Source/Utility/dsp.h **** #else
 335              		.loc 10 55 5 view .LVU60
 336              		.syntax unified
 337              	@ 55 "../DaisySP/Source/Utility/dsp.h" 1
 338 0052 88FE688A 		vminnm.f32 s16, s16, s17
 339              	@ 0 "" 2
 340              	.LVL9:
  59:../DaisySP/Source/Utility/dsp.h **** }
 341              		.loc 10 59 5 is_stmt 1 view .LVU61
  59:../DaisySP/Source/Utility/dsp.h **** }
 342              		.loc 10 59 5 is_stmt 0 view .LVU62
 343              		.thumb
 344              		.syntax unified
 345              	.LBE300:
 346              	.LBE306:
 347              	.LBE309:
 348              	.LBE312:
 349              	.LBE332:
ARM GAS  /var/folders/1c/r153ml_17wn3q6lsykf2p9y00000gn/T//ccV3PK4F.s 			page 20


  67:reverb.cpp    ****     return fclamp(knob + cv, 0.0f, 1.0f);
 350              		.loc 1 67 5 is_stmt 1 view .LVU63
 351              	.LBB333:
 352              	.LBI314:
  58:reverb.cpp    **** {
 353              		.loc 1 58 7 view .LVU64
 354              	.LBB328:
  60:reverb.cpp    **** }
 355              		.loc 1 60 5 view .LVU65
 356              	.LBB325:
 357              	.LBI316:
  64:../DaisySP/Source/Utility/dsp.h **** {
 358              		.loc 10 64 14 view .LVU66
 359              		.loc 10 66 5 view .LVU67
 360              	.LBB323:
 361              	.LBI317:
  40:../DaisySP/Source/Utility/dsp.h **** {
 362              		.loc 10 40 14 view .LVU68
 363              	.LBB319:
  42:../DaisySP/Source/Utility/dsp.h **** #ifdef __arm__
 364              		.loc 10 42 5 view .LVU69
  44:../DaisySP/Source/Utility/dsp.h **** #else
 365              		.loc 10 44 5 view .LVU70
  48:../DaisySP/Source/Utility/dsp.h **** }
 366              		.loc 10 48 5 view .LVU71
  48:../DaisySP/Source/Utility/dsp.h **** }
 367              		.loc 10 48 5 is_stmt 0 view .LVU72
 368              	.LBE319:
 369              	.LBE323:
 370              	.LBB324:
 371              	.LBI320:
  51:../DaisySP/Source/Utility/dsp.h **** {
 372              		.loc 10 51 14 is_stmt 1 view .LVU73
 373              	.LBB322:
  53:../DaisySP/Source/Utility/dsp.h **** #ifdef __arm__
 374              		.loc 10 53 5 view .LVU74
  55:../DaisySP/Source/Utility/dsp.h **** #else
 375              		.loc 10 55 5 view .LVU75
  59:../DaisySP/Source/Utility/dsp.h **** }
 376              		.loc 10 59 5 view .LVU76
  59:../DaisySP/Source/Utility/dsp.h **** }
 377              		.loc 10 59 5 is_stmt 0 view .LVU77
 378              	.LBE322:
 379              	.LBE324:
 380              	.LBE325:
 381              	.LBE328:
 382              	.LBE333:
  68:reverb.cpp    **** }
 383              		.loc 1 68 5 is_stmt 1 view .LVU78
 384              	.LBB334:
 385              	.LBI334:
  64:../DaisySP/Source/Utility/dsp.h **** {
 386              		.loc 10 64 14 view .LVU79
 387              		.loc 10 66 5 view .LVU80
 388              	.LBB335:
 389              	.LBI335:
  40:../DaisySP/Source/Utility/dsp.h **** {
ARM GAS  /var/folders/1c/r153ml_17wn3q6lsykf2p9y00000gn/T//ccV3PK4F.s 			page 21


 390              		.loc 10 40 14 view .LVU81
 391              	.LBB336:
  42:../DaisySP/Source/Utility/dsp.h **** #ifdef __arm__
 392              		.loc 10 42 5 view .LVU82
  44:../DaisySP/Source/Utility/dsp.h **** #else
 393              		.loc 10 44 5 view .LVU83
 394              	.LBE336:
 395              	.LBE335:
 396              	.LBE334:
  68:reverb.cpp    **** }
 397              		.loc 1 68 18 is_stmt 0 view .LVU84
 398 0056 30EE080A 		vadd.f32	s0, s0, s16
 399              	.LBB341:
 400              	.LBB338:
 401              	.LBB337:
  44:../DaisySP/Source/Utility/dsp.h **** #else
 402              		.loc 10 44 5 view .LVU85
 403              		.syntax unified
 404              	@ 44 "../DaisySP/Source/Utility/dsp.h" 1
 405 005a 80FE290A 		vmaxnm.f32 s0, s0, s19
 406              	@ 0 "" 2
  48:../DaisySP/Source/Utility/dsp.h **** }
 407              		.loc 10 48 5 is_stmt 1 view .LVU86
 408              	.LVL10:
  48:../DaisySP/Source/Utility/dsp.h **** }
 409              		.loc 10 48 5 is_stmt 0 view .LVU87
 410              		.thumb
 411              		.syntax unified
 412              	.LBE337:
 413              	.LBE338:
 414              	.LBB339:
 415              	.LBI339:
  51:../DaisySP/Source/Utility/dsp.h **** {
 416              		.loc 10 51 14 is_stmt 1 view .LVU88
 417              	.LBB340:
  53:../DaisySP/Source/Utility/dsp.h **** #ifdef __arm__
 418              		.loc 10 53 5 view .LVU89
  55:../DaisySP/Source/Utility/dsp.h **** #else
 419              		.loc 10 55 5 view .LVU90
 420              		.syntax unified
 421              	@ 55 "../DaisySP/Source/Utility/dsp.h" 1
 422 005e 80FE680A 		vminnm.f32 s0, s0, s17
 423              	@ 0 "" 2
 424              	.LVL11:
  59:../DaisySP/Source/Utility/dsp.h **** }
 425              		.loc 10 59 5 view .LVU91
  59:../DaisySP/Source/Utility/dsp.h **** }
 426              		.loc 10 59 5 is_stmt 0 view .LVU92
 427              		.thumb
 428              		.syntax unified
 429              	.LBE340:
 430              	.LBE339:
 431              	.LBE341:
 432              	.LBE345:
 433              	.LBE351:
 434              		.loc 1 80 5 is_stmt 1 view .LVU93
 435              		.loc 1 80 33 is_stmt 0 view .LVU94
ARM GAS  /var/folders/1c/r153ml_17wn3q6lsykf2p9y00000gn/T//ccV3PK4F.s 			page 22


 436 0062 FFF7FEFF 		bl	powf
 437              	.LVL12:
 438              	.LBB352:
 439              	.LBB353:
 440              	.LBB354:
 441              	.LBB355:
  55:reverb.cpp    **** }
 442              		.loc 1 55 18 view .LVU95
 443 0066 0921     		movs	r1, #9
 444 0068 9448     		ldr	r0, .L12
 445              	.LBE355:
 446              	.LBE354:
 447              	.LBE353:
 448              	.LBE352:
 449              		.loc 1 80 33 view .LVU96
 450 006a B0EE40AA 		vmov.f32	s20, s0
 451              	.LVL13:
  81:reverb.cpp    **** 
  82:reverb.cpp    ****     // Knob 2: Tone — one-pole lowpass on the wet signal
  83:reverb.cpp    ****     // We keep ReverbSc's internal LP wide open (fixed at 18kHz)
  84:reverb.cpp    ****     // and apply our own filter after the reverb for full control.
  85:reverb.cpp    ****     // The filter coefficient controls how much signal passes through:
  86:reverb.cpp    ****     //   coeff near 0.0 = very dark (heavily filtered)
  87:reverb.cpp    ****     //   coeff near 1.0 = bright (filter barely active)
  88:reverb.cpp    ****     // We map the knob through a power curve so the bright end is
  89:reverb.cpp    ****     // more gradual and the dark end is more dramatic.
  90:reverb.cpp    ****     // Full CCW = 0.02 (very dark), Full CW = 0.9999 (fully open/bright)
  91:reverb.cpp    ****     float knob2 = ReadKnobWithCV(ADC_10, CV_2);
 452              		.loc 1 91 5 is_stmt 1 view .LVU97
 453              	.LBB407:
 454              	.LBI352:
  64:reverb.cpp    **** {
 455              		.loc 1 64 7 view .LVU98
 456              	.LBB402:
  66:reverb.cpp    ****     float cv = ReadCV(cvAdc) - 0.5f;
 457              		.loc 1 66 5 view .LVU99
 458              	.LBB370:
 459              	.LBI354:
  53:reverb.cpp    **** {
 460              		.loc 1 53 7 view .LVU100
 461              	.LBB367:
  55:reverb.cpp    **** }
 462              		.loc 1 55 5 view .LVU101
  55:reverb.cpp    **** }
 463              		.loc 1 55 18 is_stmt 0 view .LVU102
 464 006e FFF7FEFF 		bl	_ZN5daisy8patch_sm12DaisyPatchSM11GetAdcValueEi
 465              	.LVL14:
 466              	.LBB356:
 467              	.LBI356:
  64:../DaisySP/Source/Utility/dsp.h **** {
 468              		.loc 10 64 14 is_stmt 1 view .LVU103
 469              		.loc 10 66 5 view .LVU104
 470              	.LBB357:
 471              	.LBI357:
  40:../DaisySP/Source/Utility/dsp.h **** {
 472              		.loc 10 40 14 view .LVU105
 473              	.LBB358:
ARM GAS  /var/folders/1c/r153ml_17wn3q6lsykf2p9y00000gn/T//ccV3PK4F.s 			page 23


  42:../DaisySP/Source/Utility/dsp.h **** #ifdef __arm__
 474              		.loc 10 42 5 view .LVU106
  44:../DaisySP/Source/Utility/dsp.h **** #else
 475              		.loc 10 44 5 view .LVU107
 476              	.LBE358:
 477              	.LBE357:
 478              	.LBE356:
 479              	.LBE367:
 480              	.LBE370:
 481              	.LBB371:
 482              	.LBB372:
  60:reverb.cpp    **** }
 483              		.loc 1 60 18 is_stmt 0 view .LVU108
 484 0072 0121     		movs	r1, #1
 485 0074 9148     		ldr	r0, .L12
 486              	.LBE372:
 487              	.LBE371:
 488              	.LBB386:
 489              	.LBB368:
 490              	.LBB365:
 491              	.LBB360:
 492              	.LBB359:
  44:../DaisySP/Source/Utility/dsp.h **** #else
 493              		.loc 10 44 5 view .LVU109
 494              		.syntax unified
 495              	@ 44 "../DaisySP/Source/Utility/dsp.h" 1
 496 0076 C0FE29AA 		vmaxnm.f32 s21, s0, s19
 497              	@ 0 "" 2
  48:../DaisySP/Source/Utility/dsp.h **** }
 498              		.loc 10 48 5 is_stmt 1 view .LVU110
 499              	.LVL15:
  48:../DaisySP/Source/Utility/dsp.h **** }
 500              		.loc 10 48 5 is_stmt 0 view .LVU111
 501              		.thumb
 502              		.syntax unified
 503              	.LBE359:
 504              	.LBE360:
 505              	.LBB361:
 506              	.LBI361:
  51:../DaisySP/Source/Utility/dsp.h **** {
 507              		.loc 10 51 14 is_stmt 1 view .LVU112
 508              	.LBB362:
  53:../DaisySP/Source/Utility/dsp.h **** #ifdef __arm__
 509              		.loc 10 53 5 view .LVU113
  55:../DaisySP/Source/Utility/dsp.h **** #else
 510              		.loc 10 55 5 view .LVU114
 511              	.LBE362:
 512              	.LBE361:
 513              	.LBE365:
 514              	.LBE368:
 515              	.LBE386:
 516              	.LBB387:
 517              	.LBB383:
  60:reverb.cpp    **** }
 518              		.loc 1 60 18 is_stmt 0 view .LVU115
 519 007a FFF7FEFF 		bl	_ZN5daisy8patch_sm12DaisyPatchSM11GetAdcValueEi
 520              	.LVL16:
ARM GAS  /var/folders/1c/r153ml_17wn3q6lsykf2p9y00000gn/T//ccV3PK4F.s 			page 24


  60:reverb.cpp    **** }
 521              		.loc 1 60 18 view .LVU116
 522              	.LBE383:
 523              	.LBE387:
 524              	.LBE402:
 525              	.LBE407:
 526              	.LBB408:
 527              	.LBB409:
 528              	.LBB410:
 529              	.LBB411:
  55:reverb.cpp    **** }
 530              		.loc 1 55 18 view .LVU117
 531 007e 0A21     		movs	r1, #10
 532              	.LBE411:
 533              	.LBE410:
 534              	.LBE409:
 535              	.LBE408:
 536              	.LBB464:
 537              	.LBB403:
 538              	.LBB388:
 539              	.LBB384:
 540              	.LBB373:
 541              	.LBB374:
 542              	.LBB375:
  44:../DaisySP/Source/Utility/dsp.h **** #else
 543              		.loc 10 44 5 view .LVU118
 544              		.syntax unified
 545              	@ 44 "../DaisySP/Source/Utility/dsp.h" 1
 546 0080 80FE298A 		vmaxnm.f32 s16, s0, s19
 547              	@ 0 "" 2
 548              	.LVL17:
  44:../DaisySP/Source/Utility/dsp.h **** #else
 549              		.loc 10 44 5 view .LVU119
 550              		.thumb
 551              		.syntax unified
 552              	.LBE375:
 553              	.LBE374:
 554              	.LBB377:
 555              	.LBB378:
  55:../DaisySP/Source/Utility/dsp.h **** #else
 556              		.loc 10 55 5 view .LVU120
 557              		.syntax unified
 558              	@ 55 "../DaisySP/Source/Utility/dsp.h" 1
 559 0084 88FE688A 		vminnm.f32 s16, s16, s17
 560              	@ 0 "" 2
 561              		.thumb
 562              		.syntax unified
 563              	.LBE378:
 564              	.LBE377:
 565              	.LBE373:
 566              	.LBE384:
 567              	.LBE388:
  67:reverb.cpp    ****     return fclamp(knob + cv, 0.0f, 1.0f);
 568              		.loc 1 67 32 discriminator 1 view .LVU121
 569 0088 38EE498A 		vsub.f32	s16, s16, s18
 570              	.LBE403:
 571              	.LBE464:
ARM GAS  /var/folders/1c/r153ml_17wn3q6lsykf2p9y00000gn/T//ccV3PK4F.s 			page 25


 572              	.LBB465:
 573              	.LBB459:
 574              	.LBB427:
 575              	.LBB423:
  55:reverb.cpp    **** }
 576              		.loc 1 55 18 view .LVU122
 577 008c 8B48     		ldr	r0, .L12
 578 008e FFF7FEFF 		bl	_ZN5daisy8patch_sm12DaisyPatchSM11GetAdcValueEi
 579              	.LVL18:
 580              	.LBE423:
 581              	.LBE427:
 582              	.LBB428:
 583              	.LBB429:
  60:reverb.cpp    **** }
 584              		.loc 1 60 18 view .LVU123
 585 0092 0221     		movs	r1, #2
 586 0094 8948     		ldr	r0, .L12
 587              	.LBE429:
 588              	.LBE428:
 589              	.LBE459:
 590              	.LBE465:
 591              	.LBB466:
 592              	.LBB404:
 593              	.LBB389:
 594              	.LBB369:
 595              	.LBB366:
 596              	.LBB364:
 597              	.LBB363:
  55:../DaisySP/Source/Utility/dsp.h **** #else
 598              		.loc 10 55 5 view .LVU124
 599              		.syntax unified
 600              	@ 55 "../DaisySP/Source/Utility/dsp.h" 1
 601 0096 CAFEE8AA 		vminnm.f32 s21, s21, s17
 602              	@ 0 "" 2
 603              	.LVL19:
  59:../DaisySP/Source/Utility/dsp.h **** }
 604              		.loc 10 59 5 is_stmt 1 view .LVU125
  59:../DaisySP/Source/Utility/dsp.h **** }
 605              		.loc 10 59 5 is_stmt 0 view .LVU126
 606              		.thumb
 607              		.syntax unified
 608              	.LBE363:
 609              	.LBE364:
 610              	.LBE366:
 611              	.LBE369:
 612              	.LBE389:
  67:reverb.cpp    ****     return fclamp(knob + cv, 0.0f, 1.0f);
 613              		.loc 1 67 5 is_stmt 1 view .LVU127
 614              	.LBB390:
 615              	.LBI371:
  58:reverb.cpp    **** {
 616              		.loc 1 58 7 view .LVU128
 617              	.LBB385:
  60:reverb.cpp    **** }
 618              		.loc 1 60 5 view .LVU129
 619              	.LBB382:
 620              	.LBI373:
ARM GAS  /var/folders/1c/r153ml_17wn3q6lsykf2p9y00000gn/T//ccV3PK4F.s 			page 26


  64:../DaisySP/Source/Utility/dsp.h **** {
 621              		.loc 10 64 14 view .LVU130
 622              		.loc 10 66 5 view .LVU131
 623              	.LBB380:
 624              	.LBI374:
  40:../DaisySP/Source/Utility/dsp.h **** {
 625              		.loc 10 40 14 view .LVU132
 626              	.LBB376:
  42:../DaisySP/Source/Utility/dsp.h **** #ifdef __arm__
 627              		.loc 10 42 5 view .LVU133
  44:../DaisySP/Source/Utility/dsp.h **** #else
 628              		.loc 10 44 5 view .LVU134
  48:../DaisySP/Source/Utility/dsp.h **** }
 629              		.loc 10 48 5 view .LVU135
  48:../DaisySP/Source/Utility/dsp.h **** }
 630              		.loc 10 48 5 is_stmt 0 view .LVU136
 631              	.LBE376:
 632              	.LBE380:
 633              	.LBB381:
 634              	.LBI377:
  51:../DaisySP/Source/Utility/dsp.h **** {
 635              		.loc 10 51 14 is_stmt 1 view .LVU137
 636              	.LBB379:
  53:../DaisySP/Source/Utility/dsp.h **** #ifdef __arm__
 637              		.loc 10 53 5 view .LVU138
  55:../DaisySP/Source/Utility/dsp.h **** #else
 638              		.loc 10 55 5 view .LVU139
  59:../DaisySP/Source/Utility/dsp.h **** }
 639              		.loc 10 59 5 view .LVU140
  59:../DaisySP/Source/Utility/dsp.h **** }
 640              		.loc 10 59 5 is_stmt 0 view .LVU141
 641              	.LBE379:
 642              	.LBE381:
 643              	.LBE382:
 644              	.LBE385:
 645              	.LBE390:
  68:reverb.cpp    **** }
 646              		.loc 1 68 5 is_stmt 1 view .LVU142
 647              	.LBB391:
 648              	.LBI391:
  64:../DaisySP/Source/Utility/dsp.h **** {
 649              		.loc 10 64 14 view .LVU143
 650              		.loc 10 66 5 view .LVU144
 651              	.LBB392:
 652              	.LBI392:
  40:../DaisySP/Source/Utility/dsp.h **** {
 653              		.loc 10 40 14 view .LVU145
 654              	.LBB393:
  42:../DaisySP/Source/Utility/dsp.h **** #ifdef __arm__
 655              		.loc 10 42 5 view .LVU146
  44:../DaisySP/Source/Utility/dsp.h **** #else
 656              		.loc 10 44 5 view .LVU147
 657              	.LBE393:
 658              	.LBE392:
 659              	.LBE391:
  68:reverb.cpp    **** }
 660              		.loc 1 68 18 is_stmt 0 view .LVU148
ARM GAS  /var/folders/1c/r153ml_17wn3q6lsykf2p9y00000gn/T//ccV3PK4F.s 			page 27


 661 009a 38EE2A8A 		vadd.f32	s16, s16, s21
 662              	.LBE404:
 663              	.LBE466:
 664              	.LBB467:
 665              	.LBB460:
 666              	.LBB443:
 667              	.LBB424:
 668              	.LBB412:
 669              	.LBB413:
 670              	.LBB414:
  44:../DaisySP/Source/Utility/dsp.h **** #else
 671              		.loc 10 44 5 view .LVU149
 672              		.syntax unified
 673              	@ 44 "../DaisySP/Source/Utility/dsp.h" 1
 674 009e C0FE29AA 		vmaxnm.f32 s21, s0, s19
 675              	@ 0 "" 2
 676              	.LVL20:
  44:../DaisySP/Source/Utility/dsp.h **** #else
 677              		.loc 10 44 5 view .LVU150
 678              		.thumb
 679              		.syntax unified
 680              	.LBE414:
 681              	.LBE413:
 682              	.LBE412:
 683              	.LBE424:
 684              	.LBE443:
 685              	.LBB444:
 686              	.LBB440:
  60:reverb.cpp    **** }
 687              		.loc 1 60 18 view .LVU151
 688 00a2 FFF7FEFF 		bl	_ZN5daisy8patch_sm12DaisyPatchSM11GetAdcValueEi
 689              	.LVL21:
 690              	.LBE440:
 691              	.LBE444:
 692              	.LBE460:
 693              	.LBE467:
  92:reverb.cpp    ****     // Invert: full CW = bright (low coeff = filter open)
  93:reverb.cpp    ****     //         full CCW = dark (high coeff = filter damps highs)
  94:reverb.cpp    ****     float toneCoeff = 0.9799f - powf(knob2, 2.0f) * 0.9599f;
  95:reverb.cpp    ****     // powf(x, 2.0) = squared curve — most of the knob sweep is open/bright,
  96:reverb.cpp    ****     // darkness happens quickly in the lower CCW range, which is more musical
  97:reverb.cpp    **** 
  98:reverb.cpp    ****     // Knob 3: Wet/dry — constant power crossfade keeps volume even
  99:reverb.cpp    ****     // sin/cos ensures total energy stays consistent across the sweep
 100:reverb.cpp    ****     // Full CCW = dry only, Full CW = wet only, noon = equal blend
 101:reverb.cpp    ****     float knob3 = ReadKnobWithCV(ADC_11, CV_3);
 102:reverb.cpp    ****     // Push curve so reverb appears earlier in the sweep (~8-9 o'clock)
 103:reverb.cpp    ****     float wetPos = powf(knob3, 0.5f); // square root = earlier onset
 694              		.loc 1 103 24 view .LVU152
 695 00a6 F0EE490A 		vmov.f32	s1, s18
 696              	.LBB468:
 697              	.LBB461:
 698              	.LBB445:
 699              	.LBB441:
 700              	.LBB430:
 701              	.LBB431:
 702              	.LBB432:
ARM GAS  /var/folders/1c/r153ml_17wn3q6lsykf2p9y00000gn/T//ccV3PK4F.s 			page 28


  44:../DaisySP/Source/Utility/dsp.h **** #else
 703              		.loc 10 44 5 view .LVU153
 704              		.syntax unified
 705              	@ 44 "../DaisySP/Source/Utility/dsp.h" 1
 706 00aa 80FE290A 		vmaxnm.f32 s0, s0, s19
 707              	@ 0 "" 2
 708              		.thumb
 709              		.syntax unified
 710              	.LBE432:
 711              	.LBE431:
 712              	.LBB434:
 713              	.LBB435:
  55:../DaisySP/Source/Utility/dsp.h **** #else
 714              		.loc 10 55 5 view .LVU154
 715              		.syntax unified
 716              	@ 55 "../DaisySP/Source/Utility/dsp.h" 1
 717 00ae 80FE680A 		vminnm.f32 s0, s0, s17
 718              	@ 0 "" 2
 719              		.thumb
 720              		.syntax unified
 721              	.LBE435:
 722              	.LBE434:
 723              	.LBE430:
 724              	.LBE441:
 725              	.LBE445:
  67:reverb.cpp    ****     return fclamp(knob + cv, 0.0f, 1.0f);
 726              		.loc 1 67 32 discriminator 1 view .LVU155
 727 00b2 30EE490A 		vsub.f32	s0, s0, s18
 728              	.LBB446:
 729              	.LBB425:
 730              	.LBB421:
 731              	.LBB416:
 732              	.LBB417:
  55:../DaisySP/Source/Utility/dsp.h **** #else
 733              		.loc 10 55 5 view .LVU156
 734              		.syntax unified
 735              	@ 55 "../DaisySP/Source/Utility/dsp.h" 1
 736 00b6 CAFEE8AA 		vminnm.f32 s21, s21, s17
 737              	@ 0 "" 2
 738              		.thumb
 739              		.syntax unified
 740              	.LBE417:
 741              	.LBE416:
 742              	.LBE421:
 743              	.LBE425:
 744              	.LBE446:
 745              	.LBE461:
 746              	.LBE468:
 747              	.LBB469:
 748              	.LBB405:
 749              	.LBB400:
 750              	.LBB395:
 751              	.LBB394:
  44:../DaisySP/Source/Utility/dsp.h **** #else
 752              		.loc 10 44 5 view .LVU157
 753              		.syntax unified
 754              	@ 44 "../DaisySP/Source/Utility/dsp.h" 1
ARM GAS  /var/folders/1c/r153ml_17wn3q6lsykf2p9y00000gn/T//ccV3PK4F.s 			page 29


 755 00ba 88FE298A 		vmaxnm.f32 s16, s16, s19
 756              	@ 0 "" 2
  48:../DaisySP/Source/Utility/dsp.h **** }
 757              		.loc 10 48 5 is_stmt 1 view .LVU158
 758              	.LVL22:
  48:../DaisySP/Source/Utility/dsp.h **** }
 759              		.loc 10 48 5 is_stmt 0 view .LVU159
 760              		.thumb
 761              		.syntax unified
 762              	.LBE394:
 763              	.LBE395:
 764              	.LBB396:
 765              	.LBI396:
  51:../DaisySP/Source/Utility/dsp.h **** {
 766              		.loc 10 51 14 is_stmt 1 view .LVU160
 767              	.LBB397:
  53:../DaisySP/Source/Utility/dsp.h **** #ifdef __arm__
 768              		.loc 10 53 5 view .LVU161
  55:../DaisySP/Source/Utility/dsp.h **** #else
 769              		.loc 10 55 5 view .LVU162
 770              	.LBE397:
 771              	.LBE396:
 772              	.LBE400:
 773              	.LBE405:
 774              	.LBE469:
 775              	.LBB470:
 776              	.LBB462:
  68:reverb.cpp    **** }
 777              		.loc 1 68 18 is_stmt 0 view .LVU163
 778 00be 30EE2A0A 		vadd.f32	s0, s0, s21
 779              	.LBB447:
 780              	.LBB448:
 781              	.LBB449:
  44:../DaisySP/Source/Utility/dsp.h **** #else
 782              		.loc 10 44 5 view .LVU164
 783              		.syntax unified
 784              	@ 44 "../DaisySP/Source/Utility/dsp.h" 1
 785 00c2 80FE290A 		vmaxnm.f32 s0, s0, s19
 786              	@ 0 "" 2
 787              		.thumb
 788              		.syntax unified
 789              	.LBE449:
 790              	.LBE448:
 791              	.LBB451:
 792              	.LBB452:
  55:../DaisySP/Source/Utility/dsp.h **** #else
 793              		.loc 10 55 5 view .LVU165
 794              		.syntax unified
 795              	@ 55 "../DaisySP/Source/Utility/dsp.h" 1
 796 00c6 80FE680A 		vminnm.f32 s0, s0, s17
 797              	@ 0 "" 2
 798              		.thumb
 799              		.syntax unified
 800              	.LBE452:
 801              	.LBE451:
 802              	.LBE447:
 803              	.LBE462:
ARM GAS  /var/folders/1c/r153ml_17wn3q6lsykf2p9y00000gn/T//ccV3PK4F.s 			page 30


 804              	.LBE470:
 805              		.loc 1 103 24 view .LVU166
 806 00ca FFF7FEFF 		bl	powf
 807              	.LVL23:
 808              	.LBB471:
 809              	.LBB472:
 810              	.LBB473:
 811              	.LBB474:
  55:reverb.cpp    **** }
 812              		.loc 1 55 18 view .LVU167
 813 00ce 0B21     		movs	r1, #11
 814 00d0 7A48     		ldr	r0, .L12
 815              	.LBE474:
 816              	.LBE473:
 817              	.LBE472:
 818              	.LBE471:
 819              		.loc 1 103 24 view .LVU168
 820 00d2 F0EE40BA 		vmov.f32	s23, s0
 821              	.LBB533:
 822              	.LBB526:
 823              	.LBB490:
 824              	.LBB486:
  55:reverb.cpp    **** }
 825              		.loc 1 55 18 view .LVU169
 826 00d6 FFF7FEFF 		bl	_ZN5daisy8patch_sm12DaisyPatchSM11GetAdcValueEi
 827              	.LVL24:
 828              	.LBE486:
 829              	.LBE490:
 830              	.LBB491:
 831              	.LBB492:
  60:reverb.cpp    **** }
 832              		.loc 1 60 18 view .LVU170
 833 00da 0321     		movs	r1, #3
 834 00dc 7748     		ldr	r0, .L12
 835              	.LBE492:
 836              	.LBE491:
 837              	.LBB508:
 838              	.LBB487:
 839              	.LBB475:
 840              	.LBB476:
 841              	.LBB477:
  44:../DaisySP/Source/Utility/dsp.h **** #else
 842              		.loc 10 44 5 view .LVU171
 843              		.syntax unified
 844              	@ 44 "../DaisySP/Source/Utility/dsp.h" 1
 845 00de C0FE29AA 		vmaxnm.f32 s21, s0, s19
 846              	@ 0 "" 2
 847              		.thumb
 848              		.syntax unified
 849              	.LBE477:
 850              	.LBE476:
 851              	.LBE475:
 852              	.LBE487:
 853              	.LBE508:
 854              	.LBB509:
 855              	.LBB504:
  60:reverb.cpp    **** }
ARM GAS  /var/folders/1c/r153ml_17wn3q6lsykf2p9y00000gn/T//ccV3PK4F.s 			page 31


 856              		.loc 1 60 18 view .LVU172
 857 00e2 FFF7FEFF 		bl	_ZN5daisy8patch_sm12DaisyPatchSM11GetAdcValueEi
 858              	.LVL25:
 859              	.LBE504:
 860              	.LBE509:
 861              	.LBE526:
 862              	.LBE533:
 863              	.LBB534:
 864              	.LBB535:
  39:../DaisySP/DaisySP-LGPL/Source/Effects/reverbsc.h ****     /** Initializes the reverb module, and sets the sample_rate at which the Process function will 
  40:../DaisySP/DaisySP-LGPL/Source/Effects/reverbsc.h ****         Returns 0 if all good, or 1 if it runs out of delay times exceed maximum allowed.
  41:../DaisySP/DaisySP-LGPL/Source/Effects/reverbsc.h ****     */
  42:../DaisySP/DaisySP-LGPL/Source/Effects/reverbsc.h ****     int Init(float sample_rate);
  43:../DaisySP/DaisySP-LGPL/Source/Effects/reverbsc.h **** 
  44:../DaisySP/DaisySP-LGPL/Source/Effects/reverbsc.h ****     /** Process the input through the reverb, and updates values of out1, and out2 with the new pro
  45:../DaisySP/DaisySP-LGPL/Source/Effects/reverbsc.h ****     */
  46:../DaisySP/DaisySP-LGPL/Source/Effects/reverbsc.h ****     int Process(const float &in1, const float &in2, float *out1, float *out2);
  47:../DaisySP/DaisySP-LGPL/Source/Effects/reverbsc.h **** 
  48:../DaisySP/DaisySP-LGPL/Source/Effects/reverbsc.h ****     /** controls the reverb time. reverb tail becomes infinite when set to 1.0
  49:../DaisySP/DaisySP-LGPL/Source/Effects/reverbsc.h ****         \param fb - sets reverb time. range: 0.0 to 1.0
  50:../DaisySP/DaisySP-LGPL/Source/Effects/reverbsc.h ****     */
  51:../DaisySP/DaisySP-LGPL/Source/Effects/reverbsc.h ****     inline void SetFeedback(const float &fb) { feedback_ = fb; }
 865              		.loc 9 51 58 view .LVU173
 866 00e6 9FED787A 		vldr.32	s14, .L12+12
 867              	.LBE535:
 868              	.LBE534:
 869              	.LBB539:
 870              	.LBB527:
 871              	.LBB510:
 872              	.LBB505:
 873              	.LBB493:
 874              	.LBB494:
 875              	.LBB495:
  44:../DaisySP/Source/Utility/dsp.h **** #else
 876              		.loc 10 44 5 view .LVU174
 877              		.syntax unified
 878              	@ 44 "../DaisySP/Source/Utility/dsp.h" 1
 879 00ea C0FE297A 		vmaxnm.f32 s15, s0, s19
 880              	@ 0 "" 2
 881              		.thumb
 882              		.syntax unified
 883              	.LBE495:
 884              	.LBE494:
 885              	.LBE493:
 886              	.LBE505:
 887              	.LBE510:
 888              	.LBE527:
 889              	.LBE539:
 890              	.LBB540:
 891              	.LBB536:
 892              		.loc 9 51 58 view .LVU175
 893 00ee AAEE07BA 		vfma.f32	s22, s20, s14
 894 00f2 764B     		ldr	r3, .L12+16
 895              	.LBE536:
 896              	.LBE540:
 897              	.LBB541:
 898              	.LBB528:
ARM GAS  /var/folders/1c/r153ml_17wn3q6lsykf2p9y00000gn/T//ccV3PK4F.s 			page 32


 899              	.LBB511:
 900              	.LBB506:
 901              	.LBB502:
 902              	.LBB497:
 903              	.LBB498:
  55:../DaisySP/Source/Utility/dsp.h **** #else
 904              		.loc 10 55 5 view .LVU176
 905              		.syntax unified
 906              	@ 55 "../DaisySP/Source/Utility/dsp.h" 1
 907 00f4 C7FEE87A 		vminnm.f32 s15, s15, s17
 908              	@ 0 "" 2
 909              		.thumb
 910              		.syntax unified
 911              	.LBE498:
 912              	.LBE497:
 913              	.LBE502:
 914              	.LBE506:
 915              	.LBE511:
  67:reverb.cpp    ****     return fclamp(knob + cv, 0.0f, 1.0f);
 916              		.loc 1 67 32 discriminator 1 view .LVU177
 917 00f8 77EEC97A 		vsub.f32	s15, s15, s18
 918              	.LBE528:
 919              	.LBE541:
 920              	.LBB542:
 921              	.LBB543:
  52:../DaisySP/DaisySP-LGPL/Source/Effects/reverbsc.h ****     /** controls the internal dampening filter's cutoff frequency.
  53:../DaisySP/DaisySP-LGPL/Source/Effects/reverbsc.h ****         \param freq - low pass frequency. range: 0.0 to sample_rate / 2
  54:../DaisySP/DaisySP-LGPL/Source/Effects/reverbsc.h ****     */
  55:../DaisySP/DaisySP-LGPL/Source/Effects/reverbsc.h ****     inline void SetLpFreq(const float &freq) { lpfreq_ = freq; }
 922              		.loc 9 55 56 view .LVU178
 923 00fc 744A     		ldr	r2, .L12+20
 924              	.LBE543:
 925              	.LBE542:
 926              	.LBB546:
 927              	.LBB529:
 928              	.LBB512:
 929              	.LBB488:
 930              	.LBB484:
 931              	.LBB479:
 932              	.LBB480:
  55:../DaisySP/Source/Utility/dsp.h **** #else
 933              		.loc 10 55 5 view .LVU179
 934              		.syntax unified
 935              	@ 55 "../DaisySP/Source/Utility/dsp.h" 1
 936 00fe CAFEE8AA 		vminnm.f32 s21, s21, s17
 937              	@ 0 "" 2
 938              		.thumb
 939              		.syntax unified
 940              	.LBE480:
 941              	.LBE479:
 942              	.LBE484:
 943              	.LBE488:
 944              	.LBE512:
 945              	.LBE529:
 946              	.LBE546:
 947              	.LBB547:
 948              	.LBB406:
ARM GAS  /var/folders/1c/r153ml_17wn3q6lsykf2p9y00000gn/T//ccV3PK4F.s 			page 33


 949              	.LBB401:
 950              	.LBB399:
 951              	.LBB398:
 952              		.syntax unified
 953              	@ 55 "../DaisySP/Source/Utility/dsp.h" 1
 954 0102 88FE688A 		vminnm.f32 s16, s16, s17
 955              	@ 0 "" 2
 956              	.LVL26:
  59:../DaisySP/Source/Utility/dsp.h **** }
 957              		.loc 10 59 5 is_stmt 1 view .LVU180
  59:../DaisySP/Source/Utility/dsp.h **** }
 958              		.loc 10 59 5 is_stmt 0 view .LVU181
 959              		.thumb
 960              		.syntax unified
 961              	.LBE398:
 962              	.LBE399:
 963              	.LBE401:
 964              	.LBE406:
 965              	.LBE547:
  94:reverb.cpp    ****     // powf(x, 2.0) = squared curve — most of the knob sweep is open/bright,
 966              		.loc 1 94 5 is_stmt 1 view .LVU182
 101:reverb.cpp    ****     // Push curve so reverb appears earlier in the sweep (~8-9 o'clock)
 967              		.loc 1 101 5 view .LVU183
 968              	.LBB548:
 969              	.LBI408:
  64:reverb.cpp    **** {
 970              		.loc 1 64 7 view .LVU184
 971              	.LBB463:
  66:reverb.cpp    ****     float cv = ReadCV(cvAdc) - 0.5f;
 972              		.loc 1 66 5 view .LVU185
 973              	.LBB456:
 974              	.LBI410:
  53:reverb.cpp    **** {
 975              		.loc 1 53 7 view .LVU186
 976              	.LBB426:
  55:reverb.cpp    **** }
 977              		.loc 1 55 5 view .LVU187
 978              	.LBB422:
 979              	.LBI412:
  64:../DaisySP/Source/Utility/dsp.h **** {
 980              		.loc 10 64 14 view .LVU188
 981              		.loc 10 66 5 view .LVU189
 982              	.LBB419:
 983              	.LBI413:
  40:../DaisySP/Source/Utility/dsp.h **** {
 984              		.loc 10 40 14 view .LVU190
 985              	.LBB415:
  42:../DaisySP/Source/Utility/dsp.h **** #ifdef __arm__
 986              		.loc 10 42 5 view .LVU191
  44:../DaisySP/Source/Utility/dsp.h **** #else
 987              		.loc 10 44 5 view .LVU192
  48:../DaisySP/Source/Utility/dsp.h **** }
 988              		.loc 10 48 5 view .LVU193
  48:../DaisySP/Source/Utility/dsp.h **** }
 989              		.loc 10 48 5 is_stmt 0 view .LVU194
 990              	.LBE415:
 991              	.LBE419:
ARM GAS  /var/folders/1c/r153ml_17wn3q6lsykf2p9y00000gn/T//ccV3PK4F.s 			page 34


 992              	.LBB420:
 993              	.LBI416:
  51:../DaisySP/Source/Utility/dsp.h **** {
 994              		.loc 10 51 14 is_stmt 1 view .LVU195
 995              	.LBB418:
  53:../DaisySP/Source/Utility/dsp.h **** #ifdef __arm__
 996              		.loc 10 53 5 view .LVU196
  55:../DaisySP/Source/Utility/dsp.h **** #else
 997              		.loc 10 55 5 view .LVU197
  59:../DaisySP/Source/Utility/dsp.h **** }
 998              		.loc 10 59 5 view .LVU198
  59:../DaisySP/Source/Utility/dsp.h **** }
 999              		.loc 10 59 5 is_stmt 0 view .LVU199
 1000              	.LBE418:
 1001              	.LBE420:
 1002              	.LBE422:
 1003              	.LBE426:
 1004              	.LBE456:
  67:reverb.cpp    ****     return fclamp(knob + cv, 0.0f, 1.0f);
 1005              		.loc 1 67 5 is_stmt 1 view .LVU200
 1006              	.LBB457:
 1007              	.LBI428:
  58:reverb.cpp    **** {
 1008              		.loc 1 58 7 view .LVU201
 1009              	.LBB442:
  60:reverb.cpp    **** }
 1010              		.loc 1 60 5 view .LVU202
 1011              	.LBB439:
 1012              	.LBI430:
  64:../DaisySP/Source/Utility/dsp.h **** {
 1013              		.loc 10 64 14 view .LVU203
 1014              		.loc 10 66 5 view .LVU204
 1015              	.LBB437:
 1016              	.LBI431:
  40:../DaisySP/Source/Utility/dsp.h **** {
 1017              		.loc 10 40 14 view .LVU205
 1018              	.LBB433:
  42:../DaisySP/Source/Utility/dsp.h **** #ifdef __arm__
 1019              		.loc 10 42 5 view .LVU206
  44:../DaisySP/Source/Utility/dsp.h **** #else
 1020              		.loc 10 44 5 view .LVU207
  48:../DaisySP/Source/Utility/dsp.h **** }
 1021              		.loc 10 48 5 view .LVU208
  48:../DaisySP/Source/Utility/dsp.h **** }
 1022              		.loc 10 48 5 is_stmt 0 view .LVU209
 1023              	.LBE433:
 1024              	.LBE437:
 1025              	.LBB438:
 1026              	.LBI434:
  51:../DaisySP/Source/Utility/dsp.h **** {
 1027              		.loc 10 51 14 is_stmt 1 view .LVU210
 1028              	.LBB436:
  53:../DaisySP/Source/Utility/dsp.h **** #ifdef __arm__
 1029              		.loc 10 53 5 view .LVU211
  55:../DaisySP/Source/Utility/dsp.h **** #else
 1030              		.loc 10 55 5 view .LVU212
  59:../DaisySP/Source/Utility/dsp.h **** }
ARM GAS  /var/folders/1c/r153ml_17wn3q6lsykf2p9y00000gn/T//ccV3PK4F.s 			page 35


 1031              		.loc 10 59 5 view .LVU213
  59:../DaisySP/Source/Utility/dsp.h **** }
 1032              		.loc 10 59 5 is_stmt 0 view .LVU214
 1033              	.LBE436:
 1034              	.LBE438:
 1035              	.LBE439:
 1036              	.LBE442:
 1037              	.LBE457:
  68:reverb.cpp    **** }
 1038              		.loc 1 68 5 is_stmt 1 view .LVU215
 1039              	.LBB458:
 1040              	.LBI447:
  64:../DaisySP/Source/Utility/dsp.h **** {
 1041              		.loc 10 64 14 view .LVU216
 1042              		.loc 10 66 5 view .LVU217
 1043              	.LBB454:
 1044              	.LBI448:
  40:../DaisySP/Source/Utility/dsp.h **** {
 1045              		.loc 10 40 14 view .LVU218
 1046              	.LBB450:
  42:../DaisySP/Source/Utility/dsp.h **** #ifdef __arm__
 1047              		.loc 10 42 5 view .LVU219
  44:../DaisySP/Source/Utility/dsp.h **** #else
 1048              		.loc 10 44 5 view .LVU220
  48:../DaisySP/Source/Utility/dsp.h **** }
 1049              		.loc 10 48 5 view .LVU221
  48:../DaisySP/Source/Utility/dsp.h **** }
 1050              		.loc 10 48 5 is_stmt 0 view .LVU222
 1051              	.LBE450:
 1052              	.LBE454:
 1053              	.LBB455:
 1054              	.LBI451:
  51:../DaisySP/Source/Utility/dsp.h **** {
 1055              		.loc 10 51 14 is_stmt 1 view .LVU223
 1056              	.LBB453:
  53:../DaisySP/Source/Utility/dsp.h **** #ifdef __arm__
 1057              		.loc 10 53 5 view .LVU224
  55:../DaisySP/Source/Utility/dsp.h **** #else
 1058              		.loc 10 55 5 view .LVU225
  59:../DaisySP/Source/Utility/dsp.h **** }
 1059              		.loc 10 59 5 view .LVU226
  59:../DaisySP/Source/Utility/dsp.h **** }
 1060              		.loc 10 59 5 is_stmt 0 view .LVU227
 1061              	.LBE453:
 1062              	.LBE455:
 1063              	.LBE458:
 1064              	.LBE463:
 1065              	.LBE548:
 1066              		.loc 1 103 5 is_stmt 1 view .LVU228
 104:reverb.cpp    ****     float dryMix = cosf(wetPos * (float(M_PI) / 2.0f));
 1067              		.loc 1 104 5 view .LVU229
 105:reverb.cpp    ****     float wetMix = sinf(wetPos * (float(M_PI) / 2.0f));
 1068              		.loc 1 105 5 view .LVU230
 106:reverb.cpp    **** 
 107:reverb.cpp    ****     // Knob 4: Pre-delay (0ms to 100ms)
 108:reverb.cpp    ****     // Creates a gap between dry signal and reverb tail
 109:reverb.cpp    ****     // Small amounts (5-20ms) make reverb feel natural and separated
ARM GAS  /var/folders/1c/r153ml_17wn3q6lsykf2p9y00000gn/T//ccV3PK4F.s 			page 36


 110:reverb.cpp    ****     float knob4 = ReadKnobWithCV(ADC_12, CV_4);
 1069              		.loc 1 110 5 view .LVU231
 1070              	.LBB549:
 1071              	.LBI471:
  64:reverb.cpp    **** {
 1072              		.loc 1 64 7 view .LVU232
 1073              	.LBB530:
  66:reverb.cpp    ****     float cv = ReadCV(cvAdc) - 0.5f;
 1074              		.loc 1 66 5 view .LVU233
 1075              	.LBB513:
 1076              	.LBI473:
  53:reverb.cpp    **** {
 1077              		.loc 1 53 7 view .LVU234
 1078              	.LBB489:
  55:reverb.cpp    **** }
 1079              		.loc 1 55 5 view .LVU235
 1080              	.LBB485:
 1081              	.LBI475:
  64:../DaisySP/Source/Utility/dsp.h **** {
 1082              		.loc 10 64 14 view .LVU236
 1083              		.loc 10 66 5 view .LVU237
 1084              	.LBB482:
 1085              	.LBI476:
  40:../DaisySP/Source/Utility/dsp.h **** {
 1086              		.loc 10 40 14 view .LVU238
 1087              	.LBB478:
  42:../DaisySP/Source/Utility/dsp.h **** #ifdef __arm__
 1088              		.loc 10 42 5 view .LVU239
  44:../DaisySP/Source/Utility/dsp.h **** #else
 1089              		.loc 10 44 5 view .LVU240
  48:../DaisySP/Source/Utility/dsp.h **** }
 1090              		.loc 10 48 5 view .LVU241
  48:../DaisySP/Source/Utility/dsp.h **** }
 1091              		.loc 10 48 5 is_stmt 0 view .LVU242
 1092              	.LBE478:
 1093              	.LBE482:
 1094              	.LBB483:
 1095              	.LBI479:
  51:../DaisySP/Source/Utility/dsp.h **** {
 1096              		.loc 10 51 14 is_stmt 1 view .LVU243
 1097              	.LBB481:
  53:../DaisySP/Source/Utility/dsp.h **** #ifdef __arm__
 1098              		.loc 10 53 5 view .LVU244
  55:../DaisySP/Source/Utility/dsp.h **** #else
 1099              		.loc 10 55 5 view .LVU245
  59:../DaisySP/Source/Utility/dsp.h **** }
 1100              		.loc 10 59 5 view .LVU246
  59:../DaisySP/Source/Utility/dsp.h **** }
 1101              		.loc 10 59 5 is_stmt 0 view .LVU247
 1102              	.LBE481:
 1103              	.LBE483:
 1104              	.LBE485:
 1105              	.LBE489:
 1106              	.LBE513:
  67:reverb.cpp    ****     return fclamp(knob + cv, 0.0f, 1.0f);
 1107              		.loc 1 67 5 is_stmt 1 view .LVU248
 1108              	.LBB514:
ARM GAS  /var/folders/1c/r153ml_17wn3q6lsykf2p9y00000gn/T//ccV3PK4F.s 			page 37


 1109              	.LBI491:
  58:reverb.cpp    **** {
 1110              		.loc 1 58 7 view .LVU249
 1111              	.LBB507:
  60:reverb.cpp    **** }
 1112              		.loc 1 60 5 view .LVU250
 1113              	.LBB503:
 1114              	.LBI493:
  64:../DaisySP/Source/Utility/dsp.h **** {
 1115              		.loc 10 64 14 view .LVU251
 1116              		.loc 10 66 5 view .LVU252
 1117              	.LBB500:
 1118              	.LBI494:
  40:../DaisySP/Source/Utility/dsp.h **** {
 1119              		.loc 10 40 14 view .LVU253
 1120              	.LBB496:
  42:../DaisySP/Source/Utility/dsp.h **** #ifdef __arm__
 1121              		.loc 10 42 5 view .LVU254
  44:../DaisySP/Source/Utility/dsp.h **** #else
 1122              		.loc 10 44 5 view .LVU255
  48:../DaisySP/Source/Utility/dsp.h **** }
 1123              		.loc 10 48 5 view .LVU256
  48:../DaisySP/Source/Utility/dsp.h **** }
 1124              		.loc 10 48 5 is_stmt 0 view .LVU257
 1125              	.LBE496:
 1126              	.LBE500:
 1127              	.LBB501:
 1128              	.LBI497:
  51:../DaisySP/Source/Utility/dsp.h **** {
 1129              		.loc 10 51 14 is_stmt 1 view .LVU258
 1130              	.LBB499:
  53:../DaisySP/Source/Utility/dsp.h **** #ifdef __arm__
 1131              		.loc 10 53 5 view .LVU259
  55:../DaisySP/Source/Utility/dsp.h **** #else
 1132              		.loc 10 55 5 view .LVU260
  59:../DaisySP/Source/Utility/dsp.h **** }
 1133              		.loc 10 59 5 view .LVU261
  59:../DaisySP/Source/Utility/dsp.h **** }
 1134              		.loc 10 59 5 is_stmt 0 view .LVU262
 1135              	.LBE499:
 1136              	.LBE501:
 1137              	.LBE503:
 1138              	.LBE507:
 1139              	.LBE514:
  68:reverb.cpp    **** }
 1140              		.loc 1 68 5 is_stmt 1 view .LVU263
 1141              	.LBB515:
 1142              	.LBI515:
  64:../DaisySP/Source/Utility/dsp.h **** {
 1143              		.loc 10 64 14 view .LVU264
 1144              		.loc 10 66 5 view .LVU265
 1145              	.LBB516:
 1146              	.LBI516:
  40:../DaisySP/Source/Utility/dsp.h **** {
 1147              		.loc 10 40 14 view .LVU266
 1148              	.LBB517:
  42:../DaisySP/Source/Utility/dsp.h **** #ifdef __arm__
ARM GAS  /var/folders/1c/r153ml_17wn3q6lsykf2p9y00000gn/T//ccV3PK4F.s 			page 38


 1149              		.loc 10 42 5 view .LVU267
  44:../DaisySP/Source/Utility/dsp.h **** #else
 1150              		.loc 10 44 5 view .LVU268
 1151              	.LBE517:
 1152              	.LBE516:
 1153              	.LBE515:
  68:reverb.cpp    **** }
 1154              		.loc 1 68 18 is_stmt 0 view .LVU269
 1155 0106 77EEAA7A 		vadd.f32	s15, s15, s21
 1156              	.LBE530:
 1157              	.LBE549:
 1158              	.LBB550:
 1159              	.LBB544:
 1160              		.loc 9 55 56 view .LVU270
 1161 010a 5A60     		str	r2, [r3, #4]	@ float
 1162              	.LBE544:
 1163              	.LBE550:
 1164              	.LBB551:
 1165              	.LBB531:
 1166              	.LBB524:
 1167              	.LBB519:
 1168              	.LBB518:
  44:../DaisySP/Source/Utility/dsp.h **** #else
 1169              		.loc 10 44 5 view .LVU271
 1170              		.syntax unified
 1171              	@ 44 "../DaisySP/Source/Utility/dsp.h" 1
 1172 010c C7FEA97A 		vmaxnm.f32 s15, s15, s19
 1173              	@ 0 "" 2
  48:../DaisySP/Source/Utility/dsp.h **** }
 1174              		.loc 10 48 5 is_stmt 1 view .LVU272
 1175              	.LVL27:
  48:../DaisySP/Source/Utility/dsp.h **** }
 1176              		.loc 10 48 5 is_stmt 0 view .LVU273
 1177              		.thumb
 1178              		.syntax unified
 1179              	.LBE518:
 1180              	.LBE519:
 1181              	.LBB520:
 1182              	.LBI520:
  51:../DaisySP/Source/Utility/dsp.h **** {
 1183              		.loc 10 51 14 is_stmt 1 view .LVU274
 1184              	.LBB521:
  53:../DaisySP/Source/Utility/dsp.h **** #ifdef __arm__
 1185              		.loc 10 53 5 view .LVU275
  55:../DaisySP/Source/Utility/dsp.h **** #else
 1186              		.loc 10 55 5 view .LVU276
 1187              	.LBE521:
 1188              	.LBE520:
 1189              	.LBE524:
 1190              	.LBE531:
 1191              	.LBE551:
 1192              	.LBB552:
 1193              	.LBB537:
  51:../DaisySP/DaisySP-LGPL/Source/Effects/reverbsc.h ****     /** controls the internal dampening filter's cutoff frequency.
 1194              		.loc 9 51 58 is_stmt 0 view .LVU277
 1195 0110 83ED00BA 		vstr.32	s22, [r3]
 1196              	.LBE537:
ARM GAS  /var/folders/1c/r153ml_17wn3q6lsykf2p9y00000gn/T//ccV3PK4F.s 			page 39


 1197              	.LBE552:
 1198              	.LBB553:
 1199              	.LBB532:
 1200              	.LBB525:
 1201              	.LBB523:
 1202              	.LBB522:
  55:../DaisySP/Source/Utility/dsp.h **** #else
 1203              		.loc 10 55 5 view .LVU278
 1204              		.syntax unified
 1205              	@ 55 "../DaisySP/Source/Utility/dsp.h" 1
 1206 0114 C7FEE88A 		vminnm.f32 s17, s15, s17
 1207              	@ 0 "" 2
  59:../DaisySP/Source/Utility/dsp.h **** }
 1208              		.loc 10 59 5 is_stmt 1 view .LVU279
 1209              	.LVL28:
  59:../DaisySP/Source/Utility/dsp.h **** }
 1210              		.loc 10 59 5 is_stmt 0 view .LVU280
 1211              		.thumb
 1212              		.syntax unified
 1213              	.LBE522:
 1214              	.LBE523:
 1215              	.LBE525:
 1216              	.LBE532:
 1217              	.LBE553:
 111:reverb.cpp    ****     int preDelaySamples = (int)(knob4 * kPreDelayMaxSamples);
 1218              		.loc 1 111 5 is_stmt 1 view .LVU281
 112:reverb.cpp    **** 
 113:reverb.cpp    ****     // Fix ReverbSc internal LP wide open — tone is handled by our filter
 114:reverb.cpp    ****     reverb.SetFeedback(feedback);
 1219              		.loc 1 114 5 view .LVU282
 1220              	.LBB554:
 1221              	.LBI534:
  51:../DaisySP/DaisySP-LGPL/Source/Effects/reverbsc.h ****     /** controls the internal dampening filter's cutoff frequency.
 1222              		.loc 9 51 17 view .LVU283
 1223              	.LBB538:
  51:../DaisySP/DaisySP-LGPL/Source/Effects/reverbsc.h ****     /** controls the internal dampening filter's cutoff frequency.
 1224              		.loc 9 51 48 view .LVU284
  51:../DaisySP/DaisySP-LGPL/Source/Effects/reverbsc.h ****     /** controls the internal dampening filter's cutoff frequency.
 1225              		.loc 9 51 48 is_stmt 0 view .LVU285
 1226              	.LBE538:
 1227              	.LBE554:
 115:reverb.cpp    ****     reverb.SetLpFreq(18000.f);
 1228              		.loc 1 115 5 is_stmt 1 view .LVU286
 1229              	.LBB555:
 1230              	.LBI542:
 1231              		.loc 9 55 17 view .LVU287
 1232              	.LBB545:
 1233              		.loc 9 55 48 view .LVU288
 1234              		.loc 9 55 48 is_stmt 0 view .LVU289
 1235              	.LBE545:
 1236              	.LBE555:
 116:reverb.cpp    **** 
 117:reverb.cpp    ****     float peakLevel = 0.0f;
 1237              		.loc 1 117 5 is_stmt 1 view .LVU290
 118:reverb.cpp    **** 
 119:reverb.cpp    ****     for (size_t i = 0; i < size; i++)
 1238              		.loc 1 119 5 view .LVU291
ARM GAS  /var/folders/1c/r153ml_17wn3q6lsykf2p9y00000gn/T//ccV3PK4F.s 			page 40


 1239              	.LBB556:
 1240              		.loc 1 119 26 discriminator 1 view .LVU292
 1241 0118 002C     		cmp	r4, #0
 1242 011a 00F0B380 		beq	.L5
 1243              	.LBE556:
 104:reverb.cpp    ****     float wetMix = sinf(wetPos * (float(M_PI) / 2.0f));
 1244              		.loc 1 104 24 is_stmt 0 view .LVU293
 1245 011e 9FED6D7A 		vldr.32	s14, .L12+24
  94:reverb.cpp    ****     // powf(x, 2.0) = squared curve — most of the knob sweep is open/bright,
 1246              		.loc 1 94 53 discriminator 1 view .LVU294
 1247 0122 28EE488A 		vnmul.f32	s16, s16, s16
 1248              	.LVL29:
  94:reverb.cpp    ****     // powf(x, 2.0) = squared curve — most of the knob sweep is open/bright,
 1249              		.loc 1 94 53 discriminator 1 view .LVU295
 1250 0126 DFED6C7A 		vldr.32	s15, .L12+28
 1251              	.LBB559:
 1252              		.loc 1 119 17 view .LVU296
 1253 012a 0024     		movs	r4, #0
 1254              	.LVL30:
 1255              		.loc 1 119 17 view .LVU297
 1256              	.LBE559:
 104:reverb.cpp    ****     float wetMix = sinf(wetPos * (float(M_PI) / 2.0f));
 1257              		.loc 1 104 24 view .LVU298
 1258 012c 6BEE87AA 		vmul.f32	s21, s23, s14
 1259              	.LVL31:
  94:reverb.cpp    ****     // powf(x, 2.0) = squared curve — most of the knob sweep is open/bright,
 1260              		.loc 1 94 53 discriminator 1 view .LVU299
 1261 0130 9FED6AAA 		vldr.32	s20, .L12+32
 1262 0134 DFF8C4B1 		ldr	fp, .L12+64
 1263 0138 A8EE27AA 		vfma.f32	s20, s16, s15
 1264 013c DFF8C0A1 		ldr	r10, .L12+68
 104:reverb.cpp    ****     float wetMix = sinf(wetPos * (float(M_PI) / 2.0f));
 1265              		.loc 1 104 24 view .LVU300
 1266 0140 B0EE6A0A 		vmov.f32	s0, s21
 1267 0144 DFF8BC91 		ldr	r9, .L12+72
 1268 0148 FFF7FEFF 		bl	cosf
 1269              	.LVL32:
 1270 014c B0EE409A 		vmov.f32	s18, s0
 105:reverb.cpp    **** 
 1271              		.loc 1 105 24 view .LVU301
 1272 0150 B0EE6A0A 		vmov.f32	s0, s21
 1273 0154 624D     		ldr	r5, .L12+36
 1274 0156 FFF7FEFF 		bl	sinf
 1275              	.LVL33:
 111:reverb.cpp    **** 
 1276              		.loc 1 111 39 view .LVU302
 1277 015a DFED627A 		vldr.32	s15, .L12+40
 105:reverb.cpp    **** 
 1278              		.loc 1 105 24 view .LVU303
 1279 015e F0EE40AA 		vmov.f32	s21, s0
 1280 0162 0597     		str	r7, [sp, #20]
 111:reverb.cpp    **** 
 1281              		.loc 1 111 39 view .LVU304
 1282 0164 68EEA77A 		vmul.f32	s15, s17, s15
 1283              	.LVL34:
 111:reverb.cpp    **** 
 1284              		.loc 1 111 9 view .LVU305
ARM GAS  /var/folders/1c/r153ml_17wn3q6lsykf2p9y00000gn/T//ccV3PK4F.s 			page 41


 1285 0168 FDEEE77A 		vcvt.s32.f32	s15, s15
 1286              	.LVL35:
 111:reverb.cpp    **** 
 1287              		.loc 1 111 9 view .LVU306
 1288 016c CDED047A 		vstr.32	s15, [sp, #16]	@ int
 1289              	.LVL36:
 1290              	.L7:
 1291              	.LBB560:
 1292              	.LBB557:
 120:reverb.cpp    ****     {
 121:reverb.cpp    ****         float inL = in[0][i];
 1293              		.loc 1 121 9 is_stmt 1 view .LVU307
 122:reverb.cpp    ****         float inR = in[1][i];
 1294              		.loc 1 122 15 is_stmt 0 view .LVU308
 1295 0170 059B     		ldr	r3, [sp, #20]
 1296 0172 A600     		lsls	r6, r4, #2
 123:reverb.cpp    **** 
 124:reverb.cpp    ****         // Mono mode: mirror left to right if right input is silent
 125:reverb.cpp    ****         if (fabsf(inR) < 0.001f)
 1297              		.loc 1 125 9 view .LVU309
 1298 0174 DFED5C6A 		vldr.32	s13, .L12+44
 121:reverb.cpp    ****         float inR = in[1][i];
 1299              		.loc 1 121 15 view .LVU310
 1300 0178 D3E90032 		ldrd	r3, r2, [r3]
 122:reverb.cpp    ****         float inR = in[1][i];
 1301              		.loc 1 122 15 view .LVU311
 1302 017c 02EB8402 		add	r2, r2, r4, lsl #2
 121:reverb.cpp    ****         float inR = in[1][i];
 1303              		.loc 1 121 15 view .LVU312
 1304 0180 03EB8403 		add	r3, r3, r4, lsl #2
 122:reverb.cpp    ****         float inR = in[1][i];
 1305              		.loc 1 122 15 view .LVU313
 1306 0184 92ED008A 		vldr.32	s16, [r2]
 121:reverb.cpp    ****         float inR = in[1][i];
 1307              		.loc 1 121 15 view .LVU314
 1308 0188 D3ED008A 		vldr.32	s17, [r3]
 1309              	.LVL37:
 122:reverb.cpp    ****         float inR = in[1][i];
 1310              		.loc 1 122 9 is_stmt 1 view .LVU315
 1311              		.loc 1 125 9 view .LVU316
 1312              		.loc 1 125 18 is_stmt 0 view .LVU317
 1313 018c F0EEC87A 		vabs.f32	s15, s16
 126:reverb.cpp    ****             inR = inL;
 127:reverb.cpp    **** 
 128:reverb.cpp    ****         // Peak detection on input signal for LED
 129:reverb.cpp    ****         float blockPeak = fmaxf(fabsf(inL), fabsf(inR));
 1314              		.loc 1 129 32 view .LVU318
 1315 0190 B0EEE87A 		vabs.f32	s14, s17
 125:reverb.cpp    ****             inR = inL;
 1316              		.loc 1 125 9 view .LVU319
 1317 0194 F4EEE67A 		vcmpe.f32	s15, s13
 1318 0198 F1EE10FA 		vmrs	APSR_nzcv, FPSCR
 1319 019c 03D5     		bpl	.L6
 1320 019e F0EE477A 		vmov.f32	s15, s14
 126:reverb.cpp    ****             inR = inL;
 1321              		.loc 1 126 17 view .LVU320
 1322 01a2 B0EE688A 		vmov.f32	s16, s17
ARM GAS  /var/folders/1c/r153ml_17wn3q6lsykf2p9y00000gn/T//ccV3PK4F.s 			page 42


 1323              	.LVL38:
 1324              	.L6:
 1325              		.loc 1 129 9 is_stmt 1 view .LVU321
 130:reverb.cpp    ****         if (blockPeak > peakLevel)
 131:reverb.cpp    ****             peakLevel = blockPeak;
 132:reverb.cpp    **** 
 133:reverb.cpp    ****         // Write to pre-delay buffer
 134:reverb.cpp    ****         preDelayBufL[preDelayWrite] = inL;
 1326              		.loc 1 134 35 is_stmt 0 view .LVU322
 1327 01a6 DBF80030 		ldr	r3, [fp]
 135:reverb.cpp    ****         preDelayBufR[preDelayWrite] = inR;
 136:reverb.cpp    **** 
 137:reverb.cpp    ****         // Read delayed signal — wraps around using modulo
 138:reverb.cpp    ****         int readPos = (preDelayWrite - preDelaySamples + kPreDelayMaxSamples) % kPreDelayMaxSamples
 1328              		.loc 1 138 13 view .LVU323
 1329 01aa 4FF49650 		mov	r0, #4800
 1330              		.loc 1 138 38 view .LVU324
 1331 01ae 049A     		ldr	r2, [sp, #16]
 129:reverb.cpp    ****         if (blockPeak > peakLevel)
 1332              		.loc 1 129 32 view .LVU325
 1333 01b0 C7FE877A 		vmaxnm.f32	s15, s15, s14
 1334              	.LVL39:
 130:reverb.cpp    ****         if (blockPeak > peakLevel)
 1335              		.loc 1 130 9 is_stmt 1 view .LVU326
 135:reverb.cpp    ****         preDelayBufR[preDelayWrite] = inR;
 1336              		.loc 1 135 37 is_stmt 0 view .LVU327
 1337 01b4 4D4F     		ldr	r7, .L12+48
 134:reverb.cpp    ****         preDelayBufR[preDelayWrite] = inR;
 1338              		.loc 1 134 37 view .LVU328
 1339 01b6 0AEB830E 		add	lr, r10, r3, lsl #2
 1340              		.loc 1 138 38 view .LVU329
 1341 01ba 991A     		subs	r1, r3, r2
 1342              		.loc 1 138 13 view .LVU330
 1343 01bc DFF848C1 		ldr	ip, .L12+76
 139:reverb.cpp    ****         float delayedL = preDelayBufL[readPos];
 140:reverb.cpp    ****         float delayedR = preDelayBufR[readPos];
 141:reverb.cpp    **** 
 142:reverb.cpp    ****         preDelayWrite = (preDelayWrite + 1) % kPreDelayMaxSamples;
 1344              		.loc 1 142 40 view .LVU331
 1345 01c0 5A1C     		adds	r2, r3, #1
 135:reverb.cpp    **** 
 1346              		.loc 1 135 37 view .LVU332
 1347 01c2 07EB8303 		add	r3, r7, r3, lsl #2
 138:reverb.cpp    ****         float delayedL = preDelayBufL[readPos];
 1348              		.loc 1 138 56 view .LVU333
 1349 01c6 0144     		add	r1, r1, r0
 134:reverb.cpp    ****         preDelayBufR[preDelayWrite] = inR;
 1350              		.loc 1 134 37 view .LVU334
 1351 01c8 CEED008A 		vstr.32	s17, [lr]
 135:reverb.cpp    **** 
 1352              		.loc 1 135 37 view .LVU335
 1353 01cc 83ED008A 		vstr.32	s16, [r3]
 1354 01d0 F4EEE97A 		vcmpe.f32	s15, s19
 138:reverb.cpp    ****         float delayedL = preDelayBufL[readPos];
 1355              		.loc 1 138 13 view .LVU336
 1356 01d4 8CFB013E 		smull	r3, lr, ip, r1
 1357              	.LBE557:
ARM GAS  /var/folders/1c/r153ml_17wn3q6lsykf2p9y00000gn/T//ccV3PK4F.s 			page 43


 119:reverb.cpp    ****     {
 1358              		.loc 1 119 5 discriminator 2 view .LVU337
 1359 01d8 0134     		adds	r4, r4, #1
 1360              	.LVL40:
 1361              	.LBB558:
 1362              		.loc 1 142 45 view .LVU338
 1363 01da 8CFB023C 		smull	r3, ip, ip, r2
 138:reverb.cpp    ****         float delayedL = preDelayBufL[readPos];
 1364              		.loc 1 138 13 view .LVU339
 1365 01de CB17     		asrs	r3, r1, #31
 1366 01e0 F1EE10FA 		vmrs	APSR_nzcv, FPSCR
 1367 01e4 C3EB6E23 		rsb	r3, r3, lr, asr #9
 1368 01e8 00FB1313 		mls	r3, r0, r3, r1
 1369              		.loc 1 142 45 view .LVU340
 1370 01ec 4FEAE271 		asr	r1, r2, #31
 1371 01f0 77FEA99A 		vselgt.f32	s19, s15, s19
 1372              	.LVL41:
 134:reverb.cpp    ****         preDelayBufR[preDelayWrite] = inR;
 1373              		.loc 1 134 9 is_stmt 1 view .LVU341
 135:reverb.cpp    **** 
 1374              		.loc 1 135 9 view .LVU342
 138:reverb.cpp    ****         float delayedL = preDelayBufL[readPos];
 1375              		.loc 1 138 9 view .LVU343
 139:reverb.cpp    ****         float delayedR = preDelayBufR[readPos];
 1376              		.loc 1 139 9 view .LVU344
 1377              		.loc 1 142 45 is_stmt 0 view .LVU345
 1378 01f4 C1EB6C2C 		rsb	ip, r1, ip, asr #9
 143:reverb.cpp    **** 
 144:reverb.cpp    ****         // Run reverb on pre-delayed signal
 145:reverb.cpp    ****         float sendL, sendR;
 146:reverb.cpp    ****         reverb.Process(delayedL, delayedR, &sendL, &sendR);
 1379              		.loc 1 146 23 view .LVU346
 1380 01f8 06A9     		add	r1, sp, #24
 142:reverb.cpp    **** 
 1381              		.loc 1 142 45 view .LVU347
 1382 01fa 00FB1C22 		mls	r2, r0, ip, r2
 1383              		.loc 1 146 23 view .LVU348
 1384 01fe 3348     		ldr	r0, .L12+16
 142:reverb.cpp    **** 
 1385              		.loc 1 142 23 view .LVU349
 1386 0200 CBF80020 		str	r2, [fp]
 139:reverb.cpp    ****         float delayedR = preDelayBufR[readPos];
 1387              		.loc 1 139 46 view .LVU350
 1388 0204 0AEB8302 		add	r2, r10, r3, lsl #2
 140:reverb.cpp    **** 
 1389              		.loc 1 140 46 view .LVU351
 1390 0208 07EB8303 		add	r3, r7, r3, lsl #2
 1391              	.LVL42:
 139:reverb.cpp    ****         float delayedR = preDelayBufR[readPos];
 1392              		.loc 1 139 15 view .LVU352
 1393 020c 1268     		ldr	r2, [r2]	@ float
 140:reverb.cpp    **** 
 1394              		.loc 1 140 15 view .LVU353
 1395 020e 1B68     		ldr	r3, [r3]	@ float
 139:reverb.cpp    ****         float delayedR = preDelayBufR[readPos];
 1396              		.loc 1 139 15 view .LVU354
 1397 0210 0692     		str	r2, [sp, #24]	@ float
ARM GAS  /var/folders/1c/r153ml_17wn3q6lsykf2p9y00000gn/T//ccV3PK4F.s 			page 44


 140:reverb.cpp    **** 
 1398              		.loc 1 140 9 is_stmt 1 view .LVU355
 1399              		.loc 1 146 23 is_stmt 0 view .LVU356
 1400 0212 07AA     		add	r2, sp, #28
 140:reverb.cpp    **** 
 1401              		.loc 1 140 15 view .LVU357
 1402 0214 0793     		str	r3, [sp, #28]	@ float
 142:reverb.cpp    **** 
 1403              		.loc 1 142 9 is_stmt 1 view .LVU358
 145:reverb.cpp    ****         reverb.Process(delayedL, delayedR, &sendL, &sendR);
 1404              		.loc 1 145 9 view .LVU359
 1405              		.loc 1 146 9 view .LVU360
 1406              		.loc 1 146 23 is_stmt 0 view .LVU361
 1407 0216 09AB     		add	r3, sp, #36
 1408 0218 0093     		str	r3, [sp]
 1409 021a 08AB     		add	r3, sp, #32
 1410 021c FFF7FEFF 		bl	_ZN7daisysp8ReverbSc7ProcessERKfS2_PfS3_
 1411              	.LVL43:
 147:reverb.cpp    **** 
 148:reverb.cpp    ****         // Apply standalone one-pole lowpass to wet signal (tone knob)
 149:reverb.cpp    ****         // Formula: output = coeff * output_prev + (1 - coeff) * input
 150:reverb.cpp    ****         // Higher coeff = more of the previous output kept = darker/smoother
 151:reverb.cpp    ****         // This is a simple but effective and musical-sounding filter
 152:reverb.cpp    ****         toneFilterStateL = toneCoeff * toneFilterStateL + (1.f - toneCoeff) * sendL;
 1412              		.loc 1 152 9 is_stmt 1 view .LVU362
 1413              		.loc 1 152 64 is_stmt 0 view .LVU363
 1414 0220 F7EE007A 		vmov.f32	s15, #1.0e+0
 1415              		.loc 1 152 77 view .LVU364
 1416 0224 9DED087A 		vldr.32	s14, [sp, #32]
 1417              		.loc 1 152 57 view .LVU365
 1418 0228 99ED006A 		vldr.32	s12, [r9]
 1419              		.loc 1 152 64 view .LVU366
 1420 022c 77EECA7A 		vsub.f32	s15, s15, s20
 153:reverb.cpp    ****         toneFilterStateR = toneCoeff * toneFilterStateR + (1.f - toneCoeff) * sendR;
 1421              		.loc 1 153 77 view .LVU367
 1422 0230 DDED095A 		vldr.32	s11, [sp, #36]
 1423              		.loc 1 153 26 view .LVU368
 1424 0234 D5ED006A 		vldr.32	s13, [r5]
 154:reverb.cpp    **** 
 155:reverb.cpp    ****         // Dry signal bypasses both pre-delay and tone filter
 156:reverb.cpp    ****         out[0][i] = (inL * dryMix) + (toneFilterStateL * wetMix);
 1425              		.loc 1 156 17 view .LVU369
 1426 0238 D8F80030 		ldr	r3, [r8]
 152:reverb.cpp    ****         toneFilterStateR = toneCoeff * toneFilterStateR + (1.f - toneCoeff) * sendR;
 1427              		.loc 1 152 77 view .LVU370
 1428 023c 27EE877A 		vmul.f32	s14, s15, s14
 153:reverb.cpp    ****         toneFilterStateR = toneCoeff * toneFilterStateR + (1.f - toneCoeff) * sendR;
 1429              		.loc 1 153 77 view .LVU371
 1430 0240 67EEA57A 		vmul.f32	s15, s15, s11
 1431              		.loc 1 156 17 view .LVU372
 1432 0244 3344     		add	r3, r3, r6
 152:reverb.cpp    ****         toneFilterStateR = toneCoeff * toneFilterStateR + (1.f - toneCoeff) * sendR;
 1433              		.loc 1 152 57 view .LVU373
 1434 0246 A6EE0A7A 		vfma.f32	s14, s12, s20
 153:reverb.cpp    ****         toneFilterStateR = toneCoeff * toneFilterStateR + (1.f - toneCoeff) * sendR;
 1435              		.loc 1 153 26 view .LVU374
 1436 024a E6EE8A7A 		vfma.f32	s15, s13, s20
ARM GAS  /var/folders/1c/r153ml_17wn3q6lsykf2p9y00000gn/T//ccV3PK4F.s 			page 45


 1437              		.loc 1 156 56 view .LVU375
 1438 024e 67EE2A6A 		vmul.f32	s13, s14, s21
 152:reverb.cpp    ****         toneFilterStateR = toneCoeff * toneFilterStateR + (1.f - toneCoeff) * sendR;
 1439              		.loc 1 152 26 view .LVU376
 1440 0252 89ED007A 		vstr.32	s14, [r9]
 153:reverb.cpp    ****         toneFilterStateR = toneCoeff * toneFilterStateR + (1.f - toneCoeff) * sendR;
 1441              		.loc 1 153 9 is_stmt 1 view .LVU377
 1442              		.loc 1 156 9 view .LVU378
 153:reverb.cpp    ****         toneFilterStateR = toneCoeff * toneFilterStateR + (1.f - toneCoeff) * sendR;
 1443              		.loc 1 153 26 is_stmt 0 view .LVU379
 1444 0256 C5ED007A 		vstr.32	s15, [r5]
 1445              		.loc 1 156 19 view .LVU380
 1446 025a F0EE667A 		vmov.f32	s15, s13
 1447 025e E9EE287A 		vfma.f32	s15, s18, s17
 1448 0262 C3ED007A 		vstr.32	s15, [r3]
 157:reverb.cpp    ****         out[1][i] = (inR * dryMix) + (toneFilterStateR * wetMix);
 1449              		.loc 1 157 9 is_stmt 1 view .LVU381
 1450              		.loc 1 157 56 is_stmt 0 view .LVU382
 1451 0266 D5ED007A 		vldr.32	s15, [r5]
 1452              		.loc 1 157 17 view .LVU383
 1453 026a D8F80430 		ldr	r3, [r8, #4]
 1454              		.loc 1 157 56 view .LVU384
 1455 026e 6AEEA77A 		vmul.f32	s15, s21, s15
 1456              		.loc 1 157 17 view .LVU385
 1457 0272 3344     		add	r3, r3, r6
 1458              		.loc 1 157 19 view .LVU386
 1459 0274 E8EE097A 		vfma.f32	s15, s16, s18
 1460 0278 C3ED007A 		vstr.32	s15, [r3]
 1461              	.LBE558:
 119:reverb.cpp    ****     {
 1462              		.loc 1 119 5 is_stmt 1 discriminator 2 view .LVU387
 1463              	.LVL44:
 119:reverb.cpp    ****     {
 1464              		.loc 1 119 26 discriminator 1 view .LVU388
 1465 027c 039B     		ldr	r3, [sp, #12]
 1466 027e A342     		cmp	r3, r4
 1467 0280 7FF476AF 		bne	.L7
 1468              	.LVL45:
 1469              	.L5:
 119:reverb.cpp    ****     {
 1470              		.loc 1 119 26 is_stmt 0 discriminator 1 view .LVU389
 1471              	.LBE560:
 158:reverb.cpp    ****     }
 159:reverb.cpp    **** 
 160:reverb.cpp    ****     // LED: instant attack, smooth decay
 161:reverb.cpp    ****     // Jumps to peak level immediately, decays smoothly each callback
 162:reverb.cpp    ****     static float ledBrightness = 0.0f;
 1472              		.loc 1 162 5 is_stmt 1 view .LVU390
 163:reverb.cpp    ****     if (peakLevel > ledBrightness)
 1473              		.loc 1 163 5 view .LVU391
 1474              		.loc 1 163 19 is_stmt 0 view .LVU392
 1475 0284 1A4B     		ldr	r3, .L12+52
 164:reverb.cpp    ****         ledBrightness = peakLevel;
 165:reverb.cpp    ****     ledBrightness *= 0.998f;
 166:reverb.cpp    **** 
 167:reverb.cpp    ****     // Scale 0.0-1.0 to 0.0-5.0V for the DAC
 168:reverb.cpp    ****     ledVoltage = ledBrightness * 5.0f;
ARM GAS  /var/folders/1c/r153ml_17wn3q6lsykf2p9y00000gn/T//ccV3PK4F.s 			page 46


 1476              		.loc 1 168 32 view .LVU393
 1477 0286 F1EE047A 		vmov.f32	s15, #5.0e+0
 165:reverb.cpp    **** 
 1478              		.loc 1 165 19 view .LVU394
 1479 028a DFED1A6A 		vldr.32	s13, .L12+56
 163:reverb.cpp    ****     if (peakLevel > ledBrightness)
 1480              		.loc 1 163 19 view .LVU395
 1481 028e 93ED007A 		vldr.32	s14, [r3]
 165:reverb.cpp    **** 
 1482              		.loc 1 165 5 is_stmt 1 view .LVU396
 1483              		.loc 1 168 16 is_stmt 0 view .LVU397
 1484 0292 194A     		ldr	r2, .L12+60
 165:reverb.cpp    **** 
 1485              		.loc 1 165 19 view .LVU398
 1486 0294 F4EEC79A 		vcmpe.f32	s19, s14
 1487 0298 F1EE10FA 		vmrs	APSR_nzcv, FPSCR
 1488 029c 79FE879A 		vselgt.f32	s19, s19, s14
 1489 02a0 69EEA69A 		vmul.f32	s19, s19, s13
 1490              		.loc 1 168 32 view .LVU399
 1491 02a4 69EEA77A 		vmul.f32	s15, s19, s15
 165:reverb.cpp    **** 
 1492              		.loc 1 165 19 view .LVU400
 1493 02a8 C3ED009A 		vstr.32	s19, [r3]
 1494              		.loc 1 168 5 is_stmt 1 view .LVU401
 1495              		.loc 1 168 16 is_stmt 0 view .LVU402
 1496 02ac C2ED007A 		vstr.32	s15, [r2]
 1497              	.LVL46:
 169:reverb.cpp    **** }
 1498              		.loc 1 169 1 view .LVU403
 1499 02b0 0BB0     		add	sp, sp, #44
 1500              		.cfi_def_cfa_offset 68
 1501              		@ sp needed
 1502 02b2 BDEC088B 		vldm	sp!, {d8-d11}
 1503              		.cfi_restore 86
 1504              		.cfi_restore 87
 1505              		.cfi_restore 84
 1506              		.cfi_restore 85
 1507              		.cfi_restore 82
 1508              		.cfi_restore 83
 1509              		.cfi_restore 80
 1510              		.cfi_restore 81
 1511              		.cfi_def_cfa_offset 36
 1512 02b6 BDE8F08F 		pop	{r4, r5, r6, r7, r8, r9, r10, fp, pc}
 1513              	.LVL47:
 1514              	.L13:
 1515              		.loc 1 169 1 view .LVU404
 1516 02ba 00BF     		.align	2
 1517              	.L12:
 1518 02bc 00000000 		.word	hw
 1519 02c0 00000000 		.word	0
 1520 02c4 9A99993E 		.word	1050253722
 1521 02c8 AAF1323F 		.word	1060303274
 1522 02cc 00000000 		.word	reverb
 1523 02d0 00A08C46 		.word	1183621120
 1524 02d4 DB0FC93F 		.word	1070141403
 1525 02d8 02BC753F 		.word	1064680450
 1526 02dc BADA7A3F 		.word	1065015994
ARM GAS  /var/folders/1c/r153ml_17wn3q6lsykf2p9y00000gn/T//ccV3PK4F.s 			page 47


 1527 02e0 00000000 		.word	toneFilterStateR
 1528 02e4 00009645 		.word	1167458304
 1529 02e8 6F12833A 		.word	981668463
 1530 02ec 00000000 		.word	preDelayBufR
 1531 02f0 00000000 		.word	_ZZ13AudioCallbackPKPKfPPfjE13ledBrightness
 1532 02f4 EE7C7F3F 		.word	1065319662
 1533 02f8 00000000 		.word	ledVoltage
 1534 02fc 00000000 		.word	preDelayWrite
 1535 0300 00000000 		.word	preDelayBufL
 1536 0304 00000000 		.word	toneFilterStateL
 1537 0308 B5814E1B 		.word	458129845
 1538              		.cfi_endproc
 1539              	.LFE4707:
 1541              		.section	.text._Z8ReadKnobi,"ax",%progbits
 1542              		.align	1
 1543              		.p2align 2,,3
 1544              		.global	_Z8ReadKnobi
 1545              		.syntax unified
 1546              		.thumb
 1547              		.thumb_func
 1549              	_Z8ReadKnobi:
 1550              	.LVL48:
 1551              	.LFB4704:
  54:reverb.cpp    ****     return fclamp(hw.GetAdcValue(adcIndex), 0.0f, 1.0f);
 1552              		.loc 1 54 1 is_stmt 1 view -0
 1553              		.cfi_startproc
 1554              		@ args = 0, pretend = 0, frame = 0
 1555              		@ frame_needed = 0, uses_anonymous_args = 0
  55:reverb.cpp    **** }
 1556              		.loc 1 55 5 view .LVU406
  54:reverb.cpp    ****     return fclamp(hw.GetAdcValue(adcIndex), 0.0f, 1.0f);
 1557              		.loc 1 54 1 is_stmt 0 view .LVU407
 1558 0000 0146     		mov	r1, r0
  55:reverb.cpp    **** }
 1559              		.loc 1 55 18 view .LVU408
 1560 0002 0648     		ldr	r0, .L16
 1561              	.LVL49:
  54:reverb.cpp    ****     return fclamp(hw.GetAdcValue(adcIndex), 0.0f, 1.0f);
 1562              		.loc 1 54 1 view .LVU409
 1563 0004 08B5     		push	{r3, lr}
 1564              		.cfi_def_cfa_offset 8
 1565              		.cfi_offset 3, -8
 1566              		.cfi_offset 14, -4
  55:reverb.cpp    **** }
 1567              		.loc 1 55 18 view .LVU410
 1568 0006 FFF7FEFF 		bl	_ZN5daisy8patch_sm12DaisyPatchSM11GetAdcValueEi
 1569              	.LVL50:
 1570              	.LBB566:
 1571              	.LBI566:
  64:../DaisySP/Source/Utility/dsp.h **** {
 1572              		.loc 10 64 14 is_stmt 1 view .LVU411
 1573              		.loc 10 66 5 view .LVU412
 1574              	.LBB567:
 1575              	.LBI567:
  40:../DaisySP/Source/Utility/dsp.h **** {
 1576              		.loc 10 40 14 view .LVU413
 1577              	.LBB568:
ARM GAS  /var/folders/1c/r153ml_17wn3q6lsykf2p9y00000gn/T//ccV3PK4F.s 			page 48


  42:../DaisySP/Source/Utility/dsp.h **** #ifdef __arm__
 1578              		.loc 10 42 5 view .LVU414
  44:../DaisySP/Source/Utility/dsp.h **** #else
 1579              		.loc 10 44 5 view .LVU415
 1580              	.LBE568:
 1581              	.LBE567:
 1582              	.LBB570:
 1583              	.LBB571:
  55:../DaisySP/Source/Utility/dsp.h **** #else
 1584              		.loc 10 55 5 is_stmt 0 view .LVU416
 1585 000a F7EE007A 		vmov.f32	s15, #1.0e+0
 1586              	.LBE571:
 1587              	.LBE570:
 1588              	.LBB573:
 1589              	.LBB569:
  44:../DaisySP/Source/Utility/dsp.h **** #else
 1590              		.loc 10 44 5 view .LVU417
 1591 000e 9FED047A 		vldr.32	s14, .L16+4
 1592              		.syntax unified
 1593              	@ 44 "../DaisySP/Source/Utility/dsp.h" 1
 1594 0012 80FE070A 		vmaxnm.f32 s0, s0, s14
 1595              	@ 0 "" 2
 1596              	.LVL51:
  48:../DaisySP/Source/Utility/dsp.h **** }
 1597              		.loc 10 48 5 is_stmt 1 view .LVU418
  48:../DaisySP/Source/Utility/dsp.h **** }
 1598              		.loc 10 48 5 is_stmt 0 view .LVU419
 1599              		.thumb
 1600              		.syntax unified
 1601              	.LBE569:
 1602              	.LBE573:
 1603              	.LBB574:
 1604              	.LBI570:
  51:../DaisySP/Source/Utility/dsp.h **** {
 1605              		.loc 10 51 14 is_stmt 1 view .LVU420
 1606              	.LBB572:
  53:../DaisySP/Source/Utility/dsp.h **** #ifdef __arm__
 1607              		.loc 10 53 5 view .LVU421
  55:../DaisySP/Source/Utility/dsp.h **** #else
 1608              		.loc 10 55 5 view .LVU422
 1609              		.syntax unified
 1610              	@ 55 "../DaisySP/Source/Utility/dsp.h" 1
 1611 0016 80FE670A 		vminnm.f32 s0, s0, s15
 1612              	@ 0 "" 2
 1613              	.LVL52:
  59:../DaisySP/Source/Utility/dsp.h **** }
 1614              		.loc 10 59 5 view .LVU423
  59:../DaisySP/Source/Utility/dsp.h **** }
 1615              		.loc 10 59 5 is_stmt 0 view .LVU424
 1616              		.thumb
 1617              		.syntax unified
 1618              	.LBE572:
 1619              	.LBE574:
 1620              	.LBE566:
  56:reverb.cpp    **** 
 1621              		.loc 1 56 1 view .LVU425
 1622 001a 08BD     		pop	{r3, pc}
ARM GAS  /var/folders/1c/r153ml_17wn3q6lsykf2p9y00000gn/T//ccV3PK4F.s 			page 49


 1623              	.L17:
 1624              		.align	2
 1625              	.L16:
 1626 001c 00000000 		.word	hw
 1627 0020 00000000 		.word	0
 1628              		.cfi_endproc
 1629              	.LFE4704:
 1631              		.section	.text._Z6ReadCVi,"ax",%progbits
 1632              		.align	1
 1633              		.p2align 2,,3
 1634              		.global	_Z6ReadCVi
 1635              		.syntax unified
 1636              		.thumb
 1637              		.thumb_func
 1639              	_Z6ReadCVi:
 1640              	.LFB5337:
 1641              		.cfi_startproc
  58:reverb.cpp    **** {
 1642              		.loc 1 58 7 is_stmt 1 view -0
 1643              		@ args = 0, pretend = 0, frame = 0
 1644              		@ frame_needed = 0, uses_anonymous_args = 0
 1645 0000 0146     		mov	r1, r0
 1646 0002 0648     		ldr	r0, .L20
 1647 0004 08B5     		push	{r3, lr}
 1648              		.cfi_def_cfa_offset 8
 1649              		.cfi_offset 3, -8
 1650              		.cfi_offset 14, -4
 1651 0006 FFF7FEFF 		bl	_ZN5daisy8patch_sm12DaisyPatchSM11GetAdcValueEi
 1652 000a F7EE007A 		vmov.f32	s15, #1.0e+0
 1653 000e 9FED047A 		vldr.32	s14, .L20+4
 1654              		.syntax unified
 1655              	@ 44 "../DaisySP/Source/Utility/dsp.h" 1
 1656 0012 80FE070A 		vmaxnm.f32 s0, s0, s14
 1657              	@ 0 "" 2
 1658              	@ 55 "../DaisySP/Source/Utility/dsp.h" 1
 1659 0016 80FE670A 		vminnm.f32 s0, s0, s15
 1660              	@ 0 "" 2
 1661              		.thumb
 1662              		.syntax unified
 1663 001a 08BD     		pop	{r3, pc}
 1664              	.L21:
 1665              		.align	2
 1666              	.L20:
 1667 001c 00000000 		.word	hw
 1668 0020 00000000 		.word	0
 1669              		.cfi_endproc
 1670              	.LFE5337:
 1672              		.section	.text._Z14ReadKnobWithCVii,"ax",%progbits
 1673              		.align	1
 1674              		.p2align 2,,3
 1675              		.global	_Z14ReadKnobWithCVii
 1676              		.syntax unified
 1677              		.thumb
 1678              		.thumb_func
 1680              	_Z14ReadKnobWithCVii:
 1681              	.LVL53:
 1682              	.LFB4706:
ARM GAS  /var/folders/1c/r153ml_17wn3q6lsykf2p9y00000gn/T//ccV3PK4F.s 			page 50


  65:reverb.cpp    ****     float knob = ReadKnob(knobAdc);
 1683              		.loc 1 65 1 view -0
 1684              		.cfi_startproc
 1685              		@ args = 0, pretend = 0, frame = 0
 1686              		@ frame_needed = 0, uses_anonymous_args = 0
  66:reverb.cpp    ****     float cv = ReadCV(cvAdc) - 0.5f;
 1687              		.loc 1 66 5 view .LVU428
 1688              	.LBB575:
 1689              	.LBI575:
  53:reverb.cpp    **** {
 1690              		.loc 1 53 7 view .LVU429
 1691              	.LBB576:
  55:reverb.cpp    **** }
 1692              		.loc 1 55 5 view .LVU430
 1693              	.LBE576:
 1694              	.LBE575:
  65:reverb.cpp    ****     float knob = ReadKnob(knobAdc);
 1695              		.loc 1 65 1 is_stmt 0 view .LVU431
 1696 0000 10B5     		push	{r4, lr}
 1697              		.cfi_def_cfa_offset 8
 1698              		.cfi_offset 4, -8
 1699              		.cfi_offset 14, -4
 1700 0002 0C46     		mov	r4, r1
 1701              	.LBB594:
 1702              	.LBB590:
  55:reverb.cpp    **** }
 1703              		.loc 1 55 18 view .LVU432
 1704 0004 0146     		mov	r1, r0
 1705              	.LVL54:
  55:reverb.cpp    **** }
 1706              		.loc 1 55 18 view .LVU433
 1707 0006 1148     		ldr	r0, .L24
 1708              	.LVL55:
  55:reverb.cpp    **** }
 1709              		.loc 1 55 18 view .LVU434
 1710              	.LBE590:
 1711              	.LBE594:
  65:reverb.cpp    ****     float knob = ReadKnob(knobAdc);
 1712              		.loc 1 65 1 view .LVU435
 1713 0008 2DED048B 		vpush.64	{d8, d9}
 1714              		.cfi_def_cfa_offset 24
 1715              		.cfi_offset 80, -24
 1716              		.cfi_offset 81, -20
 1717              		.cfi_offset 82, -16
 1718              		.cfi_offset 83, -12
 1719              	.LBB595:
 1720              	.LBB591:
  55:reverb.cpp    **** }
 1721              		.loc 1 55 18 view .LVU436
 1722 000c FFF7FEFF 		bl	_ZN5daisy8patch_sm12DaisyPatchSM11GetAdcValueEi
 1723              	.LVL56:
 1724              	.LBB577:
 1725              	.LBI577:
  64:../DaisySP/Source/Utility/dsp.h **** {
 1726              		.loc 10 64 14 is_stmt 1 view .LVU437
 1727              		.loc 10 66 5 view .LVU438
 1728              	.LBB578:
ARM GAS  /var/folders/1c/r153ml_17wn3q6lsykf2p9y00000gn/T//ccV3PK4F.s 			page 51


 1729              	.LBI578:
  40:../DaisySP/Source/Utility/dsp.h **** {
 1730              		.loc 10 40 14 view .LVU439
 1731              	.LBB579:
  42:../DaisySP/Source/Utility/dsp.h **** #ifdef __arm__
 1732              		.loc 10 42 5 view .LVU440
  44:../DaisySP/Source/Utility/dsp.h **** #else
 1733              		.loc 10 44 5 view .LVU441
 1734              	.LBE579:
 1735              	.LBE578:
 1736              	.LBE577:
 1737              	.LBE591:
 1738              	.LBE595:
 1739              	.LBB596:
 1740              	.LBB597:
  60:reverb.cpp    **** }
 1741              		.loc 1 60 18 is_stmt 0 view .LVU442
 1742 0010 2146     		mov	r1, r4
 1743 0012 0E48     		ldr	r0, .L24
 1744              	.LBE597:
 1745              	.LBE596:
 1746              	.LBB611:
 1747              	.LBB592:
 1748              	.LBB588:
 1749              	.LBB581:
 1750              	.LBB582:
  55:../DaisySP/Source/Utility/dsp.h **** #else
 1751              		.loc 10 55 5 view .LVU443
 1752 0014 F7EE008A 		vmov.f32	s17, #1.0e+0
 1753              	.LBE582:
 1754              	.LBE581:
 1755              	.LBB585:
 1756              	.LBB580:
  44:../DaisySP/Source/Utility/dsp.h **** #else
 1757              		.loc 10 44 5 view .LVU444
 1758 0018 9FED0D9A 		vldr.32	s18, .L24+4
 1759              		.syntax unified
 1760              	@ 44 "../DaisySP/Source/Utility/dsp.h" 1
 1761 001c 80FE098A 		vmaxnm.f32 s16, s0, s18
 1762              	@ 0 "" 2
  48:../DaisySP/Source/Utility/dsp.h **** }
 1763              		.loc 10 48 5 is_stmt 1 view .LVU445
 1764              	.LVL57:
  48:../DaisySP/Source/Utility/dsp.h **** }
 1765              		.loc 10 48 5 is_stmt 0 view .LVU446
 1766              		.thumb
 1767              		.syntax unified
 1768              	.LBE580:
 1769              	.LBE585:
 1770              	.LBB586:
 1771              	.LBI581:
  51:../DaisySP/Source/Utility/dsp.h **** {
 1772              		.loc 10 51 14 is_stmt 1 view .LVU447
 1773              	.LBB583:
  53:../DaisySP/Source/Utility/dsp.h **** #ifdef __arm__
 1774              		.loc 10 53 5 view .LVU448
  55:../DaisySP/Source/Utility/dsp.h **** #else
ARM GAS  /var/folders/1c/r153ml_17wn3q6lsykf2p9y00000gn/T//ccV3PK4F.s 			page 52


 1775              		.loc 10 55 5 view .LVU449
 1776              	.LBE583:
 1777              	.LBE586:
 1778              	.LBE588:
 1779              	.LBE592:
 1780              	.LBE611:
 1781              	.LBB612:
 1782              	.LBB608:
  60:reverb.cpp    **** }
 1783              		.loc 1 60 18 is_stmt 0 view .LVU450
 1784 0020 FFF7FEFF 		bl	_ZN5daisy8patch_sm12DaisyPatchSM11GetAdcValueEi
 1785              	.LVL58:
  60:reverb.cpp    **** }
 1786              		.loc 1 60 18 view .LVU451
 1787              	.LBE608:
 1788              	.LBE612:
  67:reverb.cpp    ****     return fclamp(knob + cv, 0.0f, 1.0f);
 1789              		.loc 1 67 32 discriminator 1 view .LVU452
 1790 0024 F6EE007A 		vmov.f32	s15, #5.0e-1
 1791              	.LBB613:
 1792              	.LBB609:
 1793              	.LBB598:
 1794              	.LBB599:
 1795              	.LBB600:
  44:../DaisySP/Source/Utility/dsp.h **** #else
 1796              		.loc 10 44 5 view .LVU453
 1797              		.syntax unified
 1798              	@ 44 "../DaisySP/Source/Utility/dsp.h" 1
 1799 0028 80FE090A 		vmaxnm.f32 s0, s0, s18
 1800              	@ 0 "" 2
 1801              		.thumb
 1802              		.syntax unified
 1803              	.LBE600:
 1804              	.LBE599:
 1805              	.LBB602:
 1806              	.LBB603:
  55:../DaisySP/Source/Utility/dsp.h **** #else
 1807              		.loc 10 55 5 view .LVU454
 1808              		.syntax unified
 1809              	@ 55 "../DaisySP/Source/Utility/dsp.h" 1
 1810 002c 80FE680A 		vminnm.f32 s0, s0, s17
 1811              	@ 0 "" 2
 1812              		.thumb
 1813              		.syntax unified
 1814              	.LBE603:
 1815              	.LBE602:
 1816              	.LBE598:
 1817              	.LBE609:
 1818              	.LBE613:
  67:reverb.cpp    ****     return fclamp(knob + cv, 0.0f, 1.0f);
 1819              		.loc 1 67 32 discriminator 1 view .LVU455
 1820 0030 30EE670A 		vsub.f32	s0, s0, s15
 1821              	.LBB614:
 1822              	.LBB593:
 1823              	.LBB589:
 1824              	.LBB587:
 1825              	.LBB584:
ARM GAS  /var/folders/1c/r153ml_17wn3q6lsykf2p9y00000gn/T//ccV3PK4F.s 			page 53


  55:../DaisySP/Source/Utility/dsp.h **** #else
 1826              		.loc 10 55 5 view .LVU456
 1827              		.syntax unified
 1828              	@ 55 "../DaisySP/Source/Utility/dsp.h" 1
 1829 0034 88FE688A 		vminnm.f32 s16, s16, s17
 1830              	@ 0 "" 2
 1831              	.LVL59:
  59:../DaisySP/Source/Utility/dsp.h **** }
 1832              		.loc 10 59 5 is_stmt 1 view .LVU457
  59:../DaisySP/Source/Utility/dsp.h **** }
 1833              		.loc 10 59 5 is_stmt 0 view .LVU458
 1834              		.thumb
 1835              		.syntax unified
 1836              	.LBE584:
 1837              	.LBE587:
 1838              	.LBE589:
 1839              	.LBE593:
 1840              	.LBE614:
  67:reverb.cpp    ****     return fclamp(knob + cv, 0.0f, 1.0f);
 1841              		.loc 1 67 5 is_stmt 1 view .LVU459
 1842              	.LBB615:
 1843              	.LBI596:
  58:reverb.cpp    **** {
 1844              		.loc 1 58 7 view .LVU460
 1845              	.LBB610:
  60:reverb.cpp    **** }
 1846              		.loc 1 60 5 view .LVU461
 1847              	.LBB607:
 1848              	.LBI598:
  64:../DaisySP/Source/Utility/dsp.h **** {
 1849              		.loc 10 64 14 view .LVU462
 1850              		.loc 10 66 5 view .LVU463
 1851              	.LBB605:
 1852              	.LBI599:
  40:../DaisySP/Source/Utility/dsp.h **** {
 1853              		.loc 10 40 14 view .LVU464
 1854              	.LBB601:
  42:../DaisySP/Source/Utility/dsp.h **** #ifdef __arm__
 1855              		.loc 10 42 5 view .LVU465
  44:../DaisySP/Source/Utility/dsp.h **** #else
 1856              		.loc 10 44 5 view .LVU466
  48:../DaisySP/Source/Utility/dsp.h **** }
 1857              		.loc 10 48 5 view .LVU467
  48:../DaisySP/Source/Utility/dsp.h **** }
 1858              		.loc 10 48 5 is_stmt 0 view .LVU468
 1859              	.LBE601:
 1860              	.LBE605:
 1861              	.LBB606:
 1862              	.LBI602:
  51:../DaisySP/Source/Utility/dsp.h **** {
 1863              		.loc 10 51 14 is_stmt 1 view .LVU469
 1864              	.LBB604:
  53:../DaisySP/Source/Utility/dsp.h **** #ifdef __arm__
 1865              		.loc 10 53 5 view .LVU470
  55:../DaisySP/Source/Utility/dsp.h **** #else
 1866              		.loc 10 55 5 view .LVU471
  59:../DaisySP/Source/Utility/dsp.h **** }
ARM GAS  /var/folders/1c/r153ml_17wn3q6lsykf2p9y00000gn/T//ccV3PK4F.s 			page 54


 1867              		.loc 10 59 5 view .LVU472
  59:../DaisySP/Source/Utility/dsp.h **** }
 1868              		.loc 10 59 5 is_stmt 0 view .LVU473
 1869              	.LBE604:
 1870              	.LBE606:
 1871              	.LBE607:
 1872              	.LBE610:
 1873              	.LBE615:
  68:reverb.cpp    **** }
 1874              		.loc 1 68 5 is_stmt 1 view .LVU474
 1875              	.LBB616:
 1876              	.LBI616:
  64:../DaisySP/Source/Utility/dsp.h **** {
 1877              		.loc 10 64 14 view .LVU475
 1878              		.loc 10 66 5 view .LVU476
 1879              	.LBB617:
 1880              	.LBI617:
  40:../DaisySP/Source/Utility/dsp.h **** {
 1881              		.loc 10 40 14 view .LVU477
 1882              	.LBB618:
  42:../DaisySP/Source/Utility/dsp.h **** #ifdef __arm__
 1883              		.loc 10 42 5 view .LVU478
  44:../DaisySP/Source/Utility/dsp.h **** #else
 1884              		.loc 10 44 5 view .LVU479
 1885              	.LBE618:
 1886              	.LBE617:
 1887              	.LBE616:
  68:reverb.cpp    **** }
 1888              		.loc 1 68 18 is_stmt 0 view .LVU480
 1889 0038 30EE080A 		vadd.f32	s0, s0, s16
 1890              	.LBB623:
 1891              	.LBB620:
 1892              	.LBB619:
  44:../DaisySP/Source/Utility/dsp.h **** #else
 1893              		.loc 10 44 5 view .LVU481
 1894              		.syntax unified
 1895              	@ 44 "../DaisySP/Source/Utility/dsp.h" 1
 1896 003c 80FE090A 		vmaxnm.f32 s0, s0, s18
 1897              	@ 0 "" 2
  48:../DaisySP/Source/Utility/dsp.h **** }
 1898              		.loc 10 48 5 is_stmt 1 view .LVU482
 1899              	.LVL60:
  48:../DaisySP/Source/Utility/dsp.h **** }
 1900              		.loc 10 48 5 is_stmt 0 view .LVU483
 1901              		.thumb
 1902              		.syntax unified
 1903              	.LBE619:
 1904              	.LBE620:
 1905              	.LBB621:
 1906              	.LBI621:
  51:../DaisySP/Source/Utility/dsp.h **** {
 1907              		.loc 10 51 14 is_stmt 1 view .LVU484
 1908              	.LBB622:
  53:../DaisySP/Source/Utility/dsp.h **** #ifdef __arm__
 1909              		.loc 10 53 5 view .LVU485
  55:../DaisySP/Source/Utility/dsp.h **** #else
 1910              		.loc 10 55 5 view .LVU486
ARM GAS  /var/folders/1c/r153ml_17wn3q6lsykf2p9y00000gn/T//ccV3PK4F.s 			page 55


 1911              		.syntax unified
 1912              	@ 55 "../DaisySP/Source/Utility/dsp.h" 1
 1913 0040 80FE680A 		vminnm.f32 s0, s0, s17
 1914              	@ 0 "" 2
 1915              	.LVL61:
  59:../DaisySP/Source/Utility/dsp.h **** }
 1916              		.loc 10 59 5 view .LVU487
  59:../DaisySP/Source/Utility/dsp.h **** }
 1917              		.loc 10 59 5 is_stmt 0 view .LVU488
 1918              		.thumb
 1919              		.syntax unified
 1920              	.LBE622:
 1921              	.LBE621:
 1922              	.LBE623:
  69:reverb.cpp    **** 
 1923              		.loc 1 69 1 view .LVU489
 1924 0044 BDEC048B 		vldm	sp!, {d8-d9}
 1925              		.cfi_restore 82
 1926              		.cfi_restore 83
 1927              		.cfi_restore 80
 1928              		.cfi_restore 81
 1929              		.cfi_def_cfa_offset 8
 1930              	.LVL62:
  69:reverb.cpp    **** 
 1931              		.loc 1 69 1 view .LVU490
 1932 0048 10BD     		pop	{r4, pc}
 1933              	.LVL63:
 1934              	.L25:
  69:reverb.cpp    **** 
 1935              		.loc 1 69 1 view .LVU491
 1936 004a 00BF     		.align	2
 1937              	.L24:
 1938 004c 00000000 		.word	hw
 1939 0050 00000000 		.word	0
 1940              		.cfi_endproc
 1941              	.LFE4706:
 1943              		.section	.text.startup.main,"ax",%progbits
 1944              		.align	1
 1945              		.p2align 2,,3
 1946              		.global	main
 1947              		.syntax unified
 1948              		.thumb
 1949              		.thumb_func
 1951              	main:
 1952              	.LFB4708:
 170:reverb.cpp    **** 
 171:reverb.cpp    **** int main(void)
 172:reverb.cpp    **** {
 1953              		.loc 1 172 1 is_stmt 1 view -0
 1954              		.cfi_startproc
 1955              		@ args = 0, pretend = 0, frame = 0
 1956              		@ frame_needed = 0, uses_anonymous_args = 0
 173:reverb.cpp    ****     hw.Init();
 1957              		.loc 1 173 5 view .LVU493
 172:reverb.cpp    ****     hw.Init();
 1958              		.loc 1 172 1 is_stmt 0 view .LVU494
 1959 0000 10B5     		push	{r4, lr}
ARM GAS  /var/folders/1c/r153ml_17wn3q6lsykf2p9y00000gn/T//ccV3PK4F.s 			page 56


 1960              		.cfi_def_cfa_offset 8
 1961              		.cfi_offset 4, -8
 1962              		.cfi_offset 14, -4
 1963              		.loc 1 173 12 view .LVU495
 1964 0002 2048     		ldr	r0, .L29
 1965 0004 FFF7FEFF 		bl	_ZN5daisy8patch_sm12DaisyPatchSM4InitEv
 1966              	.LVL64:
 174:reverb.cpp    **** 
 175:reverb.cpp    ****     // Clear pre-delay buffers
 176:reverb.cpp    ****     for (int i = 0; i < kPreDelayMaxSamples; i++)
 1967              		.loc 1 176 5 is_stmt 1 view .LVU496
 1968              	.LBB624:
 1969              		.loc 1 176 23 discriminator 1 view .LVU497
 177:reverb.cpp    ****     {
 178:reverb.cpp    ****         preDelayBufL[i] = 0.0f;
 1970              		.loc 1 178 25 is_stmt 0 view .LVU498
 1971 0008 4FF49642 		mov	r2, #19200
 1972 000c 0021     		movs	r1, #0
 1973 000e 1E48     		ldr	r0, .L29+4
 1974 0010 FFF7FEFF 		bl	memset
 1975              	.LVL65:
 179:reverb.cpp    ****         preDelayBufR[i] = 0.0f;
 1976              		.loc 1 179 25 view .LVU499
 1977 0014 4FF49642 		mov	r2, #19200
 1978 0018 0021     		movs	r1, #0
 1979 001a 1C48     		ldr	r0, .L29+8
 1980 001c FFF7FEFF 		bl	memset
 1981              	.LVL66:
 1982              		.loc 1 179 25 view .LVU500
 1983              	.LBE624:
 180:reverb.cpp    ****     }
 181:reverb.cpp    **** 
 182:reverb.cpp    ****     hw.SetAudioSampleRate(SaiHandle::Config::SampleRate::SAI_48KHZ);
 1984              		.loc 1 182 5 is_stmt 1 view .LVU501
 1985              		.loc 1 182 26 is_stmt 0 view .LVU502
 1986 0020 0321     		movs	r1, #3
 1987 0022 1848     		ldr	r0, .L29
 1988 0024 FFF7FEFF 		bl	_ZN5daisy8patch_sm12DaisyPatchSM18SetAudioSampleRateENS_9SaiHandle6Config10SampleRateE
 1989              	.LVL67:
 183:reverb.cpp    ****     hw.SetAudioBlockSize(4);
 1990              		.loc 1 183 5 is_stmt 1 view .LVU503
 1991              		.loc 1 183 25 is_stmt 0 view .LVU504
 1992 0028 0421     		movs	r1, #4
 1993 002a 1648     		ldr	r0, .L29
 1994 002c FFF7FEFF 		bl	_ZN5daisy8patch_sm12DaisyPatchSM17SetAudioBlockSizeEj
 1995              	.LVL68:
 184:reverb.cpp    **** 
 185:reverb.cpp    ****     float sampleRate = hw.AudioSampleRate();
 1996              		.loc 1 185 5 is_stmt 1 view .LVU505
 1997              		.loc 1 185 42 is_stmt 0 view .LVU506
 1998 0030 1448     		ldr	r0, .L29
 1999 0032 FFF7FEFF 		bl	_ZN5daisy8patch_sm12DaisyPatchSM15AudioSampleRateEv
 2000              	.LVL69:
 186:reverb.cpp    ****     reverb.Init(sampleRate);
 2001              		.loc 1 186 5 is_stmt 1 view .LVU507
 2002              		.loc 1 186 16 is_stmt 0 view .LVU508
 2003 0036 1648     		ldr	r0, .L29+12
ARM GAS  /var/folders/1c/r153ml_17wn3q6lsykf2p9y00000gn/T//ccV3PK4F.s 			page 57


 2004 0038 FFF7FEFF 		bl	_ZN7daisysp8ReverbSc4InitEf
 2005              	.LVL70:
 187:reverb.cpp    **** 
 188:reverb.cpp    ****     reverb.SetFeedback(0.85f);
 2006              		.loc 1 188 5 is_stmt 1 view .LVU509
 2007              	.LBB625:
 2008              	.LBI625:
  51:../DaisySP/DaisySP-LGPL/Source/Effects/reverbsc.h ****     /** controls the internal dampening filter's cutoff frequency.
 2009              		.loc 9 51 17 view .LVU510
 2010              	.LBB626:
  51:../DaisySP/DaisySP-LGPL/Source/Effects/reverbsc.h ****     /** controls the internal dampening filter's cutoff frequency.
 2011              		.loc 9 51 48 view .LVU511
  51:../DaisySP/DaisySP-LGPL/Source/Effects/reverbsc.h ****     /** controls the internal dampening filter's cutoff frequency.
 2012              		.loc 9 51 58 is_stmt 0 view .LVU512
 2013 003c 144C     		ldr	r4, .L29+12
 2014 003e 154A     		ldr	r2, .L29+16
 2015              	.LBE626:
 2016              	.LBE625:
 2017              	.LBB628:
 2018              	.LBB629:
 2019              		.loc 9 55 56 view .LVU513
 2020 0040 154B     		ldr	r3, .L29+20
 2021              	.LBE629:
 2022              	.LBE628:
 189:reverb.cpp    ****     reverb.SetLpFreq(18000.f);
 190:reverb.cpp    **** 
 191:reverb.cpp    ****     hw.StartAudio(AudioCallback);
 2023              		.loc 1 191 18 view .LVU514
 2024 0042 1649     		ldr	r1, .L29+24
 2025 0044 0F48     		ldr	r0, .L29
 2026              	.LBB631:
 2027              	.LBB627:
  51:../DaisySP/DaisySP-LGPL/Source/Effects/reverbsc.h ****     /** controls the internal dampening filter's cutoff frequency.
 2028              		.loc 9 51 58 view .LVU515
 2029 0046 2260     		str	r2, [r4]	@ float
 2030              	.LVL71:
  51:../DaisySP/DaisySP-LGPL/Source/Effects/reverbsc.h ****     /** controls the internal dampening filter's cutoff frequency.
 2031              		.loc 9 51 58 view .LVU516
 2032              	.LBE627:
 2033              	.LBE631:
 189:reverb.cpp    ****     reverb.SetLpFreq(18000.f);
 2034              		.loc 1 189 5 is_stmt 1 view .LVU517
 2035              	.LBB632:
 2036              	.LBI628:
 2037              		.loc 9 55 17 view .LVU518
 2038              	.LBB630:
 2039              		.loc 9 55 48 view .LVU519
 2040              		.loc 9 55 56 is_stmt 0 view .LVU520
 2041 0048 6360     		str	r3, [r4, #4]	@ float
 2042              	.LVL72:
 2043              		.loc 9 55 56 view .LVU521
 2044              	.LBE630:
 2045              	.LBE632:
 2046              		.loc 1 191 5 is_stmt 1 view .LVU522
 2047              		.loc 1 191 18 is_stmt 0 view .LVU523
 2048 004a FFF7FEFF 		bl	_ZN5daisy8patch_sm12DaisyPatchSM10StartAudioEPFvPKPKfPPfjE
 2049              	.LVL73:
ARM GAS  /var/folders/1c/r153ml_17wn3q6lsykf2p9y00000gn/T//ccV3PK4F.s 			page 58


 192:reverb.cpp    ****     System::Delay(100);
 2050              		.loc 1 192 5 is_stmt 1 view .LVU524
 2051              		.loc 1 192 18 is_stmt 0 view .LVU525
 2052 004e 6420     		movs	r0, #100
 2053 0050 134C     		ldr	r4, .L29+28
 2054 0052 FFF7FEFF 		bl	_ZN5daisy6System5DelayEm
 2055              	.LVL74:
 193:reverb.cpp    ****     hw.WriteCvOut(CV_OUT_1, 0.0f); // force DAC channels to known state
 2056              		.loc 1 193 5 is_stmt 1 view .LVU526
 2057              		.loc 1 193 18 is_stmt 0 view .LVU527
 2058 0056 9FED130A 		vldr.32	s0, .L29+32
 2059 005a 0121     		movs	r1, #1
 2060 005c 0948     		ldr	r0, .L29
 2061 005e FFF7FEFF 		bl	_ZN5daisy8patch_sm12DaisyPatchSM10WriteCvOutEif
 2062              	.LVL75:
 194:reverb.cpp    ****     hw.WriteCvOut(CV_OUT_2, 0.0f);
 2063              		.loc 1 194 5 is_stmt 1 view .LVU528
 2064              		.loc 1 194 18 is_stmt 0 view .LVU529
 2065 0062 9FED100A 		vldr.32	s0, .L29+32
 2066 0066 0221     		movs	r1, #2
 2067 0068 0648     		ldr	r0, .L29
 2068 006a FFF7FEFF 		bl	_ZN5daisy8patch_sm12DaisyPatchSM10WriteCvOutEif
 2069              	.LVL76:
 2070              	.L27:
 195:reverb.cpp    **** 
 196:reverb.cpp    ****     while (true)
 2071              		.loc 1 196 5 is_stmt 1 view .LVU530
 197:reverb.cpp    ****     {
 198:reverb.cpp    ****         hw.WriteCvOut(CV_OUT_2, ledVoltage);
 2072              		.loc 1 198 9 view .LVU531
 2073              		.loc 1 198 22 is_stmt 0 view .LVU532
 2074 006e 94ED000A 		vldr.32	s0, [r4]
 2075 0072 0221     		movs	r1, #2
 2076 0074 0348     		ldr	r0, .L29
 2077 0076 FFF7FEFF 		bl	_ZN5daisy8patch_sm12DaisyPatchSM10WriteCvOutEif
 2078              	.LVL77:
 199:reverb.cpp    ****         System::Delay(1);
 2079              		.loc 1 199 9 is_stmt 1 discriminator 2 view .LVU533
 2080              		.loc 1 199 22 is_stmt 0 discriminator 2 view .LVU534
 2081 007a 0120     		movs	r0, #1
 2082 007c FFF7FEFF 		bl	_ZN5daisy6System5DelayEm
 2083              	.LVL78:
 196:reverb.cpp    ****     {
 2084              		.loc 1 196 5 is_stmt 1 view .LVU535
 2085 0080 F5E7     		b	.L27
 2086              	.L30:
 2087 0082 00BF     		.align	2
 2088              	.L29:
 2089 0084 00000000 		.word	hw
 2090 0088 00000000 		.word	preDelayBufL
 2091 008c 00000000 		.word	preDelayBufR
 2092 0090 00000000 		.word	reverb
 2093 0094 9A99593F 		.word	1062836634
 2094 0098 00A08C46 		.word	1183621120
 2095 009c 00000000 		.word	_Z13AudioCallbackPKPKfPPfj
 2096 00a0 00000000 		.word	ledVoltage
 2097 00a4 00000000 		.word	0
ARM GAS  /var/folders/1c/r153ml_17wn3q6lsykf2p9y00000gn/T//ccV3PK4F.s 			page 59


 2098              		.cfi_endproc
 2099              	.LFE4708:
 2101              		.section	.text.startup._GLOBAL__sub_I_hw,"ax",%progbits
 2102              		.align	1
 2103              		.p2align 2,,3
 2104              		.syntax unified
 2105              		.thumb
 2106              		.thumb_func
 2108              	_GLOBAL__sub_I_hw:
 2109              	.LFB5335:
 200:reverb.cpp    ****     }
 201:reverb.cpp    **** }...
 2110              		.loc 1 201 1 view -0
 2111              		.cfi_startproc
 2112              		@ args = 0, pretend = 0, frame = 0
 2113              		@ frame_needed = 0, uses_anonymous_args = 0
 2114              		@ link register save eliminated.
 2115              	.LBB679:
 2116              	.LBI679:
 2117              		.loc 1 201 1 view .LVU537
 2118              	.LVL79:
 2119              	.LBB680:
 2120              	.LBB681:
 2121              	.LBI681:
  64:../libDaisy/src/daisy_patch_sm.h ****         ~DaisyPatchSM() {}
 2122              		.loc 2 64 9 view .LVU538
 2123              	.LBB682:
 2124              	.LBB683:
 2125              	.LBI683:
  96:../libDaisy/src/sys/system.h ****     ~System() {}
 2126              		.loc 8 96 5 view .LVU539
  96:../libDaisy/src/sys/system.h ****     ~System() {}
 2127              		.loc 8 96 5 is_stmt 0 view .LVU540
 2128              	.LBE683:
 2129              	.LBB684:
 2130              	.LBI684:
 2131              		.file 11 "../libDaisy/src/per/qspi.h"
   1:../libDaisy/src/per/qspi.h **** #ifndef DSY_QSPI
   2:../libDaisy/src/per/qspi.h **** #define DSY_QSPI /**< Macro */
   3:../libDaisy/src/per/qspi.h **** 
   4:../libDaisy/src/per/qspi.h **** #ifndef UNIT_TEST // for unit tests, a dummy implementation
   5:../libDaisy/src/per/qspi.h **** 
   6:../libDaisy/src/per/qspi.h **** #include <cstdint>
   7:../libDaisy/src/per/qspi.h **** #include "daisy_core.h" // Added for dsy_gpio_pin typedef
   8:../libDaisy/src/per/qspi.h **** 
   9:../libDaisy/src/per/qspi.h **** #define DSY_QSPI_TEXT       \
  10:../libDaisy/src/per/qspi.h ****     __attribute__((section( \
  11:../libDaisy/src/per/qspi.h ****         ".qspiflash_text"))) /**< used for reading memory in memory_mapped mode. */
  12:../libDaisy/src/per/qspi.h **** #define DSY_QSPI_DATA       \
  13:../libDaisy/src/per/qspi.h ****     __attribute__((section( \
  14:../libDaisy/src/per/qspi.h ****         ".qspiflash_data"))) /**< used for reading memory in memory_mapped mode. */
  15:../libDaisy/src/per/qspi.h **** #define DSY_QSPI_BSS        \
  16:../libDaisy/src/per/qspi.h ****     __attribute__((section( \
  17:../libDaisy/src/per/qspi.h ****         ".qspiflash_bss"))) /**< used for reading memory in memory_mapped mode. */
  18:../libDaisy/src/per/qspi.h **** 
  19:../libDaisy/src/per/qspi.h **** namespace daisy
  20:../libDaisy/src/per/qspi.h **** {
ARM GAS  /var/folders/1c/r153ml_17wn3q6lsykf2p9y00000gn/T//ccV3PK4F.s 			page 60


  21:../libDaisy/src/per/qspi.h **** /** @addtogroup serial
  22:../libDaisy/src/per/qspi.h **** @{
  23:../libDaisy/src/per/qspi.h **** */
  24:../libDaisy/src/per/qspi.h **** 
  25:../libDaisy/src/per/qspi.h **** /** 
  26:../libDaisy/src/per/qspi.h ****  Driver for QSPI peripheral to interface with external flash memory. \n 
  27:../libDaisy/src/per/qspi.h ****     Currently supported QSPI Devices: \n 
  28:../libDaisy/src/per/qspi.h ****     * IS25LP080D
  29:../libDaisy/src/per/qspi.h **** */
  30:../libDaisy/src/per/qspi.h **** class QSPIHandle
  31:../libDaisy/src/per/qspi.h **** {
  32:../libDaisy/src/per/qspi.h ****   public:
  33:../libDaisy/src/per/qspi.h ****     enum Result
  34:../libDaisy/src/per/qspi.h ****     {
  35:../libDaisy/src/per/qspi.h ****         OK = 0,
  36:../libDaisy/src/per/qspi.h ****         ERR
  37:../libDaisy/src/per/qspi.h ****     };
  38:../libDaisy/src/per/qspi.h **** 
  39:../libDaisy/src/per/qspi.h ****     /** Indicates the current status of the module. 
  40:../libDaisy/src/per/qspi.h ****          *  Warnings are indicated by a leading W.
  41:../libDaisy/src/per/qspi.h ****          *  Errors are indicated by a leading E and cause an immediate exit.
  42:../libDaisy/src/per/qspi.h ****          * 
  43:../libDaisy/src/per/qspi.h ****          *  \param GOOD - No errors have been reported.
  44:../libDaisy/src/per/qspi.h ****          *  \param E_HAL_ERROR - HAL code did not return HAL_OK.
  45:../libDaisy/src/per/qspi.h ****          *  \param E_SWITCHING_MODES - An error was encountered while switching QSPI peripheral mod
  46:../libDaisy/src/per/qspi.h ****          *  \param E_INVALID_MODE - QSPI should not be written to while the program is executing fr
  47:../libDaisy/src/per/qspi.h ****          */
  48:../libDaisy/src/per/qspi.h ****     enum Status
  49:../libDaisy/src/per/qspi.h ****     {
  50:../libDaisy/src/per/qspi.h ****         GOOD = 0,
  51:../libDaisy/src/per/qspi.h ****         E_HAL_ERROR,
  52:../libDaisy/src/per/qspi.h ****         E_SWITCHING_MODES,
  53:../libDaisy/src/per/qspi.h ****         E_INVALID_MODE,
  54:../libDaisy/src/per/qspi.h ****     };
  55:../libDaisy/src/per/qspi.h **** 
  56:../libDaisy/src/per/qspi.h ****     /** Configuration structure for interfacing with QSPI Driver */
  57:../libDaisy/src/per/qspi.h ****     struct Config
  58:../libDaisy/src/per/qspi.h ****     {
  59:../libDaisy/src/per/qspi.h ****         /** Flash Devices supported. (Both of these are more-or-less the same, just different sizes
  60:../libDaisy/src/per/qspi.h ****         enum Device
  61:../libDaisy/src/per/qspi.h ****         {
  62:../libDaisy/src/per/qspi.h ****             IS25LP080D,  /**< & */
  63:../libDaisy/src/per/qspi.h ****             IS25LP064A,  /**< & */
  64:../libDaisy/src/per/qspi.h ****             DEVICE_LAST, /**< & */
  65:../libDaisy/src/per/qspi.h ****         };
  66:../libDaisy/src/per/qspi.h **** 
  67:../libDaisy/src/per/qspi.h ****         /** 
  68:../libDaisy/src/per/qspi.h ****         Modes of operation.
  69:../libDaisy/src/per/qspi.h ****         Memory Mapped mode: QSPI configured so that the QSPI can be
  70:../libDaisy/src/per/qspi.h ****         read from starting address 0x90000000. Writing is not
  71:../libDaisy/src/per/qspi.h ****         possible in this mode. \n 
  72:../libDaisy/src/per/qspi.h ****         Indirect Polling mode: Device driver enabled. 
  73:../libDaisy/src/per/qspi.h ****         */
  74:../libDaisy/src/per/qspi.h ****         enum Mode
  75:../libDaisy/src/per/qspi.h ****         {
  76:../libDaisy/src/per/qspi.h ****             MEMORY_MAPPED,    /**< & */
  77:../libDaisy/src/per/qspi.h ****             INDIRECT_POLLING, /**< & */
ARM GAS  /var/folders/1c/r153ml_17wn3q6lsykf2p9y00000gn/T//ccV3PK4F.s 			page 61


  78:../libDaisy/src/per/qspi.h ****             MODE_LAST,
  79:../libDaisy/src/per/qspi.h ****         };
  80:../libDaisy/src/per/qspi.h **** 
  81:../libDaisy/src/per/qspi.h ****         //SCK,  CE# (active low)
  82:../libDaisy/src/per/qspi.h ****         struct
  83:../libDaisy/src/per/qspi.h ****         {
  84:../libDaisy/src/per/qspi.h ****             dsy_gpio_pin io0; /**< & */
  85:../libDaisy/src/per/qspi.h ****             dsy_gpio_pin io1; /**< & */
  86:../libDaisy/src/per/qspi.h ****             dsy_gpio_pin io2; /**< & */
  87:../libDaisy/src/per/qspi.h ****             dsy_gpio_pin io3; /**< & */
  88:../libDaisy/src/per/qspi.h ****             dsy_gpio_pin clk; /**< & */
  89:../libDaisy/src/per/qspi.h ****             dsy_gpio_pin ncs; /**< & */
  90:../libDaisy/src/per/qspi.h ****         } pin_config;
  91:../libDaisy/src/per/qspi.h **** 
  92:../libDaisy/src/per/qspi.h ****         Device device;
  93:../libDaisy/src/per/qspi.h ****         Mode   mode;
  94:../libDaisy/src/per/qspi.h ****     };
  95:../libDaisy/src/per/qspi.h **** 
  96:../libDaisy/src/per/qspi.h ****     /** 
  97:../libDaisy/src/per/qspi.h ****         Initializes QSPI peripheral, and Resets, and prepares memory for access.
  98:../libDaisy/src/per/qspi.h ****         \param config should be populated with the mode, device and pin_config before calling this 
  99:../libDaisy/src/per/qspi.h ****         \return Result::OK or Result::ERR
 100:../libDaisy/src/per/qspi.h ****         */
 101:../libDaisy/src/per/qspi.h ****     Result Init(const Config& config);
 102:../libDaisy/src/per/qspi.h **** 
 103:../libDaisy/src/per/qspi.h ****     /** Returns the current config. */
 104:../libDaisy/src/per/qspi.h ****     const Config& GetConfig() const;
 105:../libDaisy/src/per/qspi.h **** 
 106:../libDaisy/src/per/qspi.h ****     // Couldn't this just be called before anything else in init? That
 107:../libDaisy/src/per/qspi.h ****     // would make manually calling it unnecessary.
 108:../libDaisy/src/per/qspi.h ****     /** 
 109:../libDaisy/src/per/qspi.h ****         Deinitializes the peripheral
 110:../libDaisy/src/per/qspi.h ****         This should be called before reinitializing QSPI in a different mode.
 111:../libDaisy/src/per/qspi.h ****         \return Result::OK or Result::ERR
 112:../libDaisy/src/per/qspi.h ****         */
 113:../libDaisy/src/per/qspi.h ****     Result DeInit();
 114:../libDaisy/src/per/qspi.h **** 
 115:../libDaisy/src/per/qspi.h ****     /** 
 116:../libDaisy/src/per/qspi.h ****         Writes a single page to to the specified address on the QSPI chip.
 117:../libDaisy/src/per/qspi.h ****         For IS25LP*, page size is 256 bytes.
 118:../libDaisy/src/per/qspi.h ****         \param address Address to write to
 119:../libDaisy/src/per/qspi.h ****         \param size Buffer size
 120:../libDaisy/src/per/qspi.h ****         \param buffer Buffer to write
 121:../libDaisy/src/per/qspi.h ****         \return Result::OK or Result::ERR
 122:../libDaisy/src/per/qspi.h ****         */
 123:../libDaisy/src/per/qspi.h ****     Result WritePage(uint32_t address, uint32_t size, uint8_t* buffer);
 124:../libDaisy/src/per/qspi.h **** 
 125:../libDaisy/src/per/qspi.h ****     /** 
 126:../libDaisy/src/per/qspi.h ****         Writes data in buffer to to the QSPI. Starting at address to address+size 
 127:../libDaisy/src/per/qspi.h ****         \param address Address to write to
 128:../libDaisy/src/per/qspi.h ****         \param size Buffer size
 129:../libDaisy/src/per/qspi.h ****         \param buffer Buffer to write
 130:../libDaisy/src/per/qspi.h ****         \return Result::OK or Result::ERR
 131:../libDaisy/src/per/qspi.h ****         */
 132:../libDaisy/src/per/qspi.h ****     Result Write(uint32_t address, uint32_t size, uint8_t* buffer);
 133:../libDaisy/src/per/qspi.h **** 
 134:../libDaisy/src/per/qspi.h ****     /** 
ARM GAS  /var/folders/1c/r153ml_17wn3q6lsykf2p9y00000gn/T//ccV3PK4F.s 			page 62


 135:../libDaisy/src/per/qspi.h ****         Erases the area specified on the chip.
 136:../libDaisy/src/per/qspi.h ****         Erasures will happen by 4K, 32K or 64K increments.
 137:../libDaisy/src/per/qspi.h ****         Smallest erase possible is 4kB at a time. (on IS25LP*)
 138:../libDaisy/src/per/qspi.h ****         \param start_addr Address to begin erasing from
 139:../libDaisy/src/per/qspi.h ****         \param end_addr  Address to stop erasing at
 140:../libDaisy/src/per/qspi.h ****         \return Result::OK or Result::ERR
 141:../libDaisy/src/per/qspi.h ****         */
 142:../libDaisy/src/per/qspi.h ****     Result Erase(uint32_t start_addr, uint32_t end_addr);
 143:../libDaisy/src/per/qspi.h **** 
 144:../libDaisy/src/per/qspi.h ****     /**  
 145:../libDaisy/src/per/qspi.h ****          Erases a single sector of the chip.  
 146:../libDaisy/src/per/qspi.h ****         TODO: Document the size of this function. 
 147:../libDaisy/src/per/qspi.h ****         \param address Address of sector to erase
 148:../libDaisy/src/per/qspi.h ****         \return Result::OK or Result::ERR
 149:../libDaisy/src/per/qspi.h ****         */
 150:../libDaisy/src/per/qspi.h ****     Result EraseSector(uint32_t address);
 151:../libDaisy/src/per/qspi.h **** 
 152:../libDaisy/src/per/qspi.h ****     /** Returns the current class status. Useful for debugging.
 153:../libDaisy/src/per/qspi.h ****      *  \returns Status
 154:../libDaisy/src/per/qspi.h ****      */
 155:../libDaisy/src/per/qspi.h ****     Status GetStatus();
 156:../libDaisy/src/per/qspi.h **** 
 157:../libDaisy/src/per/qspi.h ****     /** Returns a pointer to the actual memory used 
 158:../libDaisy/src/per/qspi.h ****      *  The memory at this address is read-only
 159:../libDaisy/src/per/qspi.h ****      *  to write to it use the Write function.
 160:../libDaisy/src/per/qspi.h ****      * 
 161:../libDaisy/src/per/qspi.h ****      *  \param offset returns the pointer starting this 
 162:../libDaisy/src/per/qspi.h ****      *                many bytes into the memory
 163:../libDaisy/src/per/qspi.h ****     */
 164:../libDaisy/src/per/qspi.h ****     void* GetData(uint32_t offset = 0);
 165:../libDaisy/src/per/qspi.h **** 
 166:../libDaisy/src/per/qspi.h ****     QSPIHandle() : pimpl_(nullptr) {}
 2132              		.loc 11 166 5 is_stmt 1 view .LVU541
 2133              	.LBB685:
 2134              	.LBB686:
 2135              		.loc 11 166 20 is_stmt 0 view .LVU542
 2136 0000 0A4B     		ldr	r3, .L32
 2137 0002 0022     		movs	r2, #0
 2138              	.LBE686:
 2139              	.LBE685:
 2140              	.LBE684:
 2141              	.LBB687:
 2142              	.LBB688:
 2143              	.LBB689:
 2144              	.LBB690:
 2145              	.LBB691:
 2146              	.LBB692:
 2147              	.LBB693:
 2148              	.LBB694:
 2149              	.LBB695:
 2150              	.LBB696:
 2151              		.file 12 "../libDaisy/src/daisy_core.h"
   1:../libDaisy/src/daisy_core.h **** #pragma once
   2:../libDaisy/src/daisy_core.h **** #ifndef DSY_CORE_HW_H
   3:../libDaisy/src/daisy_core.h **** #define DSY_CORE_HW_H /**< & */
   4:../libDaisy/src/daisy_core.h **** #include <stdint.h>
   5:../libDaisy/src/daisy_core.h **** #include <stdlib.h>
ARM GAS  /var/folders/1c/r153ml_17wn3q6lsykf2p9y00000gn/T//ccV3PK4F.s 			page 63


   6:../libDaisy/src/daisy_core.h **** 
   7:../libDaisy/src/daisy_core.h **** #if defined(_MSC_VER)
   8:../libDaisy/src/daisy_core.h **** #define FORCE_INLINE __forceinline /**< & */
   9:../libDaisy/src/daisy_core.h **** #elif defined(__clang__)
  10:../libDaisy/src/daisy_core.h **** #define FORCE_INLINE inline __attribute__((always_inline)) /**< & */
  11:../libDaisy/src/daisy_core.h **** #pragma clang diagnostic ignored "-Wduplicate-decl-specifier"
  12:../libDaisy/src/daisy_core.h **** #elif defined(__GNUC__)
  13:../libDaisy/src/daisy_core.h **** #define FORCE_INLINE inline __attribute__((always_inline)) /**< & */
  14:../libDaisy/src/daisy_core.h **** #else
  15:../libDaisy/src/daisy_core.h **** #error unknown compiler
  16:../libDaisy/src/daisy_core.h **** #endif
  17:../libDaisy/src/daisy_core.h **** 
  18:../libDaisy/src/daisy_core.h **** /** @addtogroup utility
  19:../libDaisy/src/daisy_core.h ****     @{
  20:../libDaisy/src/daisy_core.h **** */
  21:../libDaisy/src/daisy_core.h **** 
  22:../libDaisy/src/daisy_core.h **** /** Macro for area of memory that is configured as cacheless
  23:../libDaisy/src/daisy_core.h **** This should be used primarily for DMA buffers, and the like.
  24:../libDaisy/src/daisy_core.h **** */
  25:../libDaisy/src/daisy_core.h **** #define DMA_BUFFER_MEM_SECTION __attribute__((section(".sram1_bss")))
  26:../libDaisy/src/daisy_core.h **** /** 
  27:../libDaisy/src/daisy_core.h **** THE DTCM RAM section is also non-cached. However, is not suitable 
  28:../libDaisy/src/daisy_core.h **** for DMA transfers. Performance is on par with internal SRAM w/ 
  29:../libDaisy/src/daisy_core.h **** cache enabled.
  30:../libDaisy/src/daisy_core.h **** */
  31:../libDaisy/src/daisy_core.h **** #define DTCM_MEM_SECTION __attribute__((section(".dtcmram_bss")))
  32:../libDaisy/src/daisy_core.h **** 
  33:../libDaisy/src/daisy_core.h **** #define FBIPMAX 0.999985f             /**< close to 1.0f-LSB at 16 bit */
  34:../libDaisy/src/daisy_core.h **** #define FBIPMIN (-FBIPMAX)            /**< - (1 - LSB) */
  35:../libDaisy/src/daisy_core.h **** #define U82F_SCALE 0.0078740f         /**< 1 / 127 */
  36:../libDaisy/src/daisy_core.h **** #define F2U8_SCALE 127.0f             /**< 128 - 1 */
  37:../libDaisy/src/daisy_core.h **** #define S82F_SCALE 0.0078125f         /**< 1 / (2**7) */
  38:../libDaisy/src/daisy_core.h **** #define F2S8_SCALE 127.0f             /**< (2 ** 7) - 1 */
  39:../libDaisy/src/daisy_core.h **** #define S162F_SCALE 3.0517578125e-05f /**< 1 / (2** 15) */
  40:../libDaisy/src/daisy_core.h **** #define F2S16_SCALE 32767.0f          /**< (2 ** 15) - 1 */
  41:../libDaisy/src/daisy_core.h **** #define F2S24_SCALE 8388608.0f        /**< 2 ** 23 */
  42:../libDaisy/src/daisy_core.h **** #define S242F_SCALE 1.192092896e-07f  /**< 1 / (2 ** 23) */
  43:../libDaisy/src/daisy_core.h **** #define S24SIGN 0x800000              /**< 2 ** 23 */
  44:../libDaisy/src/daisy_core.h **** #define S322F_SCALE 4.6566129e-10f    /**< 1 / (2** 31) */
  45:../libDaisy/src/daisy_core.h **** #define F2S32_SCALE 2147483647.f      /**< (2 ** 31) - 1 */
  46:../libDaisy/src/daisy_core.h **** 
  47:../libDaisy/src/daisy_core.h **** 
  48:../libDaisy/src/daisy_core.h **** /** shorthand macro for simplifying the reading of the left 
  49:../libDaisy/src/daisy_core.h ****  *  channel of a non-interleaved output buffer named out */
  50:../libDaisy/src/daisy_core.h **** #define OUT_L out[0]
  51:../libDaisy/src/daisy_core.h **** 
  52:../libDaisy/src/daisy_core.h **** /** shorthand macro for simplifying the reading of the right 
  53:../libDaisy/src/daisy_core.h ****  *  channel of a non-interleaved output buffer named out */
  54:../libDaisy/src/daisy_core.h **** #define OUT_R out[1]
  55:../libDaisy/src/daisy_core.h **** 
  56:../libDaisy/src/daisy_core.h **** /** shorthand macro for simplifying the reading of the left 
  57:../libDaisy/src/daisy_core.h ****  *  channel of a non-interleaved input buffer named in */
  58:../libDaisy/src/daisy_core.h **** #define IN_L in[0]
  59:../libDaisy/src/daisy_core.h **** 
  60:../libDaisy/src/daisy_core.h **** /** shorthand macro for simplifying the reading of the right 
  61:../libDaisy/src/daisy_core.h ****  *  channel of a non-interleaved input buffer named in */
  62:../libDaisy/src/daisy_core.h **** #define IN_R in[1]
ARM GAS  /var/folders/1c/r153ml_17wn3q6lsykf2p9y00000gn/T//ccV3PK4F.s 			page 64


  63:../libDaisy/src/daisy_core.h **** 
  64:../libDaisy/src/daisy_core.h **** /** 
  65:../libDaisy/src/daisy_core.h ****     Computes cube.
  66:../libDaisy/src/daisy_core.h ****     \param x Number to be cubed
  67:../libDaisy/src/daisy_core.h ****     \return x ^ 3
  68:../libDaisy/src/daisy_core.h **** */
  69:../libDaisy/src/daisy_core.h **** FORCE_INLINE float cube(float x)
  70:../libDaisy/src/daisy_core.h **** {
  71:../libDaisy/src/daisy_core.h ****     return (x * x) * x;
  72:../libDaisy/src/daisy_core.h **** }
  73:../libDaisy/src/daisy_core.h **** 
  74:../libDaisy/src/daisy_core.h **** /** 
  75:../libDaisy/src/daisy_core.h ****     Converts unsigned 8-bit to float
  76:../libDaisy/src/daisy_core.h ****     \param x Number to be scaled.
  77:../libDaisy/src/daisy_core.h ****     \return Scaled number.
  78:../libDaisy/src/daisy_core.h **** */
  79:../libDaisy/src/daisy_core.h **** FORCE_INLINE float u82f(uint8_t x)
  80:../libDaisy/src/daisy_core.h **** {
  81:../libDaisy/src/daisy_core.h ****     return ((float)x - 127.f) * U82F_SCALE;
  82:../libDaisy/src/daisy_core.h **** }
  83:../libDaisy/src/daisy_core.h **** 
  84:../libDaisy/src/daisy_core.h **** /**
  85:../libDaisy/src/daisy_core.h ****     Converts float to unsigned 8-bit
  86:../libDaisy/src/daisy_core.h **** */
  87:../libDaisy/src/daisy_core.h **** FORCE_INLINE uint8_t f2u8(float x)
  88:../libDaisy/src/daisy_core.h **** {
  89:../libDaisy/src/daisy_core.h ****     x = x <= FBIPMIN ? FBIPMIN : x;
  90:../libDaisy/src/daisy_core.h ****     x = x >= FBIPMAX ? FBIPMAX : x;
  91:../libDaisy/src/daisy_core.h ****     return (uint8_t)((x * F2U8_SCALE) + F2U8_SCALE);
  92:../libDaisy/src/daisy_core.h **** }
  93:../libDaisy/src/daisy_core.h **** 
  94:../libDaisy/src/daisy_core.h **** 
  95:../libDaisy/src/daisy_core.h **** /** 
  96:../libDaisy/src/daisy_core.h ****     Converts Signed 8-bit to float
  97:../libDaisy/src/daisy_core.h ****     \param x Number to be scaled.
  98:../libDaisy/src/daisy_core.h ****     \return Scaled number.
  99:../libDaisy/src/daisy_core.h **** */
 100:../libDaisy/src/daisy_core.h **** FORCE_INLINE float s82f(int8_t x)
 101:../libDaisy/src/daisy_core.h **** {
 102:../libDaisy/src/daisy_core.h ****     return (float)x * S82F_SCALE;
 103:../libDaisy/src/daisy_core.h **** }
 104:../libDaisy/src/daisy_core.h **** 
 105:../libDaisy/src/daisy_core.h **** /**
 106:../libDaisy/src/daisy_core.h ****     Converts float to Signed 8-bit
 107:../libDaisy/src/daisy_core.h **** */
 108:../libDaisy/src/daisy_core.h **** FORCE_INLINE int8_t f2s8(float x)
 109:../libDaisy/src/daisy_core.h **** {
 110:../libDaisy/src/daisy_core.h ****     x = x <= FBIPMIN ? FBIPMIN : x;
 111:../libDaisy/src/daisy_core.h ****     x = x >= FBIPMAX ? FBIPMAX : x;
 112:../libDaisy/src/daisy_core.h ****     return (int32_t)(x * F2S8_SCALE);
 113:../libDaisy/src/daisy_core.h **** }
 114:../libDaisy/src/daisy_core.h **** 
 115:../libDaisy/src/daisy_core.h **** /** 
 116:../libDaisy/src/daisy_core.h ****     Converts Signed 16-bit to float
 117:../libDaisy/src/daisy_core.h ****     \param x Number to be scaled.
 118:../libDaisy/src/daisy_core.h ****     \return Scaled number.
 119:../libDaisy/src/daisy_core.h **** */
ARM GAS  /var/folders/1c/r153ml_17wn3q6lsykf2p9y00000gn/T//ccV3PK4F.s 			page 65


 120:../libDaisy/src/daisy_core.h **** FORCE_INLINE float s162f(int16_t x)
 121:../libDaisy/src/daisy_core.h **** {
 122:../libDaisy/src/daisy_core.h ****     return (float)x * S162F_SCALE;
 123:../libDaisy/src/daisy_core.h **** }
 124:../libDaisy/src/daisy_core.h **** 
 125:../libDaisy/src/daisy_core.h **** /**
 126:../libDaisy/src/daisy_core.h ****     Converts float to Signed 16-bit
 127:../libDaisy/src/daisy_core.h **** */
 128:../libDaisy/src/daisy_core.h **** FORCE_INLINE int16_t f2s16(float x)
 129:../libDaisy/src/daisy_core.h **** {
 130:../libDaisy/src/daisy_core.h ****     x = x <= FBIPMIN ? FBIPMIN : x;
 131:../libDaisy/src/daisy_core.h ****     x = x >= FBIPMAX ? FBIPMAX : x;
 132:../libDaisy/src/daisy_core.h ****     return (int32_t)(x * F2S16_SCALE);
 133:../libDaisy/src/daisy_core.h **** }
 134:../libDaisy/src/daisy_core.h **** 
 135:../libDaisy/src/daisy_core.h **** /**
 136:../libDaisy/src/daisy_core.h ****     Converts Signed 24-bit to float
 137:../libDaisy/src/daisy_core.h ****  */
 138:../libDaisy/src/daisy_core.h **** FORCE_INLINE float s242f(int32_t x)
 139:../libDaisy/src/daisy_core.h **** {
 140:../libDaisy/src/daisy_core.h ****     x = (x ^ S24SIGN) - S24SIGN; //sign extend aka ((x<<8)>>8)
 141:../libDaisy/src/daisy_core.h ****     return (float)x * S242F_SCALE;
 142:../libDaisy/src/daisy_core.h **** }
 143:../libDaisy/src/daisy_core.h **** /**
 144:../libDaisy/src/daisy_core.h ****     Converts float to Signed 24-bit
 145:../libDaisy/src/daisy_core.h ****  */
 146:../libDaisy/src/daisy_core.h **** FORCE_INLINE int32_t f2s24(float x)
 147:../libDaisy/src/daisy_core.h **** {
 148:../libDaisy/src/daisy_core.h ****     x = x <= FBIPMIN ? FBIPMIN : x;
 149:../libDaisy/src/daisy_core.h ****     x = x >= FBIPMAX ? FBIPMAX : x;
 150:../libDaisy/src/daisy_core.h ****     return (int32_t)(x * F2S24_SCALE);
 151:../libDaisy/src/daisy_core.h **** }
 152:../libDaisy/src/daisy_core.h **** 
 153:../libDaisy/src/daisy_core.h **** /**
 154:../libDaisy/src/daisy_core.h ****     Converts Signed 32-bit to float
 155:../libDaisy/src/daisy_core.h ****  */
 156:../libDaisy/src/daisy_core.h **** FORCE_INLINE float s322f(int32_t x)
 157:../libDaisy/src/daisy_core.h **** {
 158:../libDaisy/src/daisy_core.h ****     return (float)x * S322F_SCALE;
 159:../libDaisy/src/daisy_core.h **** }
 160:../libDaisy/src/daisy_core.h **** /**
 161:../libDaisy/src/daisy_core.h ****     Converts float to Signed 24-bit
 162:../libDaisy/src/daisy_core.h ****  */
 163:../libDaisy/src/daisy_core.h **** FORCE_INLINE int32_t f2s32(float x)
 164:../libDaisy/src/daisy_core.h **** {
 165:../libDaisy/src/daisy_core.h ****     x = x <= FBIPMIN ? FBIPMIN : x;
 166:../libDaisy/src/daisy_core.h ****     x = x >= FBIPMAX ? FBIPMAX : x;
 167:../libDaisy/src/daisy_core.h ****     return (int32_t)(x * F2S32_SCALE);
 168:../libDaisy/src/daisy_core.h **** }
 169:../libDaisy/src/daisy_core.h **** 
 170:../libDaisy/src/daisy_core.h **** 
 171:../libDaisy/src/daisy_core.h **** /** Enums and a simple struct for defining a hardware pin on the MCU
 172:../libDaisy/src/daisy_core.h ****  *  These correlate with the stm32 datasheet, and are used to configure
 173:../libDaisy/src/daisy_core.h ****  *  the hardware.
 174:../libDaisy/src/daisy_core.h ****  * 
 175:../libDaisy/src/daisy_core.h ****  *  This along with the dsy_gpio_pin class should no longer be used.
 176:../libDaisy/src/daisy_core.h ****  *  They are available for backwards compatability. 
ARM GAS  /var/folders/1c/r153ml_17wn3q6lsykf2p9y00000gn/T//ccV3PK4F.s 			page 66


 177:../libDaisy/src/daisy_core.h ****  * 
 178:../libDaisy/src/daisy_core.h ****  *  Please use GPIOPort enum and the Pin struct instead.
 179:../libDaisy/src/daisy_core.h ****  */
 180:../libDaisy/src/daisy_core.h **** typedef enum
 181:../libDaisy/src/daisy_core.h **** {
 182:../libDaisy/src/daisy_core.h ****     DSY_GPIOA, /**< & */
 183:../libDaisy/src/daisy_core.h ****     DSY_GPIOB, /**< & */
 184:../libDaisy/src/daisy_core.h ****     DSY_GPIOC, /**< & */
 185:../libDaisy/src/daisy_core.h ****     DSY_GPIOD, /**< & */
 186:../libDaisy/src/daisy_core.h ****     DSY_GPIOE, /**< & */
 187:../libDaisy/src/daisy_core.h ****     DSY_GPIOF, /**< & */
 188:../libDaisy/src/daisy_core.h ****     DSY_GPIOG, /**< & */
 189:../libDaisy/src/daisy_core.h ****     DSY_GPIOH, /**< & */
 190:../libDaisy/src/daisy_core.h ****     DSY_GPIOI, /**< & */
 191:../libDaisy/src/daisy_core.h ****     DSY_GPIOJ, /**< & */
 192:../libDaisy/src/daisy_core.h ****     DSY_GPIOK, /**< & */
 193:../libDaisy/src/daisy_core.h ****     DSY_GPIOX, /** This is a non-existant port for unsupported bits of hardware. */
 194:../libDaisy/src/daisy_core.h ****     DSY_GPIO_LAST, /** Final enum member */
 195:../libDaisy/src/daisy_core.h **** } dsy_gpio_port;
 196:../libDaisy/src/daisy_core.h **** 
 197:../libDaisy/src/daisy_core.h **** /** Hardware define pins 
 198:../libDaisy/src/daisy_core.h ****  *  
 199:../libDaisy/src/daisy_core.h ****  *  The dsy_gpio_pin struct should no longer be used, and is only available for
 200:../libDaisy/src/daisy_core.h ****  *  backwards compatability.
 201:../libDaisy/src/daisy_core.h ****  * 
 202:../libDaisy/src/daisy_core.h ****  *  Please use Pin struct instead.
 203:../libDaisy/src/daisy_core.h ****  */
 204:../libDaisy/src/daisy_core.h **** typedef struct
 205:../libDaisy/src/daisy_core.h **** {
 206:../libDaisy/src/daisy_core.h ****     dsy_gpio_port port; /**< & */
 207:../libDaisy/src/daisy_core.h ****     uint8_t       pin;  /**< number 0-15 */
 208:../libDaisy/src/daisy_core.h **** } dsy_gpio_pin;
 209:../libDaisy/src/daisy_core.h **** 
 210:../libDaisy/src/daisy_core.h **** /** Helper for creating pins from port/pin combos easily
 211:../libDaisy/src/daisy_core.h ****  * 
 212:../libDaisy/src/daisy_core.h ****  *  The dsy_gpio_pin struct should no longer be used, and is only available for
 213:../libDaisy/src/daisy_core.h ****  *  backwards compatability.
 214:../libDaisy/src/daisy_core.h ****  * 
 215:../libDaisy/src/daisy_core.h ****  *  Please use Pin struct instead.
 216:../libDaisy/src/daisy_core.h **** */
 217:../libDaisy/src/daisy_core.h **** FORCE_INLINE dsy_gpio_pin dsy_pin(dsy_gpio_port port, uint8_t pin)
 218:../libDaisy/src/daisy_core.h **** {
 219:../libDaisy/src/daisy_core.h ****     dsy_gpio_pin p;
 220:../libDaisy/src/daisy_core.h ****     p.port = port;
 221:../libDaisy/src/daisy_core.h ****     p.pin  = pin;
 222:../libDaisy/src/daisy_core.h ****     return p;
 223:../libDaisy/src/daisy_core.h **** }
 224:../libDaisy/src/daisy_core.h **** 
 225:../libDaisy/src/daisy_core.h **** /** Helper for testing sameness of two dsy_gpio_pins
 226:../libDaisy/src/daisy_core.h ****  *  \return    1 if same, 0 if different
 227:../libDaisy/src/daisy_core.h ****  * 
 228:../libDaisy/src/daisy_core.h ****  *  The dsy_gpio_pin struct should no longer be used, and is only available for
 229:../libDaisy/src/daisy_core.h ****  *  backwards compatability.
 230:../libDaisy/src/daisy_core.h ****  * 
 231:../libDaisy/src/daisy_core.h ****  *  Please use Pin struct instead.
 232:../libDaisy/src/daisy_core.h ****  */
 233:../libDaisy/src/daisy_core.h **** FORCE_INLINE uint8_t dsy_pin_cmp(dsy_gpio_pin *a, dsy_gpio_pin *b)
ARM GAS  /var/folders/1c/r153ml_17wn3q6lsykf2p9y00000gn/T//ccV3PK4F.s 			page 67


 234:../libDaisy/src/daisy_core.h **** {
 235:../libDaisy/src/daisy_core.h ****     return ((a->port == b->port) && (a->pin == b->pin));
 236:../libDaisy/src/daisy_core.h **** }
 237:../libDaisy/src/daisy_core.h **** 
 238:../libDaisy/src/daisy_core.h **** #ifdef __cplusplus
 239:../libDaisy/src/daisy_core.h **** 
 240:../libDaisy/src/daisy_core.h **** namespace daisy
 241:../libDaisy/src/daisy_core.h **** {
 242:../libDaisy/src/daisy_core.h **** /** @brief GPIO Port names */
 243:../libDaisy/src/daisy_core.h **** enum GPIOPort
 244:../libDaisy/src/daisy_core.h **** {
 245:../libDaisy/src/daisy_core.h ****     PORTA, /**< Port A */
 246:../libDaisy/src/daisy_core.h ****     PORTB, /**< Port B */
 247:../libDaisy/src/daisy_core.h ****     PORTC, /**< Port C */
 248:../libDaisy/src/daisy_core.h ****     PORTD, /**< Port D */
 249:../libDaisy/src/daisy_core.h ****     PORTE, /**< Port E */
 250:../libDaisy/src/daisy_core.h ****     PORTF, /**< Port F */
 251:../libDaisy/src/daisy_core.h ****     PORTG, /**< Port G */
 252:../libDaisy/src/daisy_core.h ****     PORTH, /**< Port H */
 253:../libDaisy/src/daisy_core.h ****     PORTI, /**< Port I */
 254:../libDaisy/src/daisy_core.h ****     PORTJ, /**< Port J */
 255:../libDaisy/src/daisy_core.h ****     PORTK, /**< Port K */
 256:../libDaisy/src/daisy_core.h ****     PORTX, /**< Used as a dummy port to signal an invalid pin. */
 257:../libDaisy/src/daisy_core.h **** };
 258:../libDaisy/src/daisy_core.h **** 
 259:../libDaisy/src/daisy_core.h **** /** @brief representation of hardware port/pin combination */
 260:../libDaisy/src/daisy_core.h **** struct Pin
 261:../libDaisy/src/daisy_core.h **** {
 262:../libDaisy/src/daisy_core.h ****     GPIOPort port;
 263:../libDaisy/src/daisy_core.h ****     uint8_t  pin;
 264:../libDaisy/src/daisy_core.h **** 
 265:../libDaisy/src/daisy_core.h ****     /** @brief Constructor creates a valid pin. 
 266:../libDaisy/src/daisy_core.h ****      *  @param pt GPIOPort between PA, and PK corresponding to STM32 Port.
 267:../libDaisy/src/daisy_core.h ****      *  @param pn pin number in range of 0-15
 268:../libDaisy/src/daisy_core.h ****     */
 269:../libDaisy/src/daisy_core.h ****     constexpr Pin(const GPIOPort pt, const uint8_t pn) : port(pt), pin(pn) {}
 270:../libDaisy/src/daisy_core.h **** 
 271:../libDaisy/src/daisy_core.h ****     /** @brief Basic Constructor creates an invalid Pin object */
 272:../libDaisy/src/daisy_core.h ****     constexpr Pin() : port(PORTX), pin(255) {}
 2152              		.loc 12 272 23 view .LVU543
 2153 0004 4FF60B71 		movw	r1, #65291
 2154              	.LBE696:
 2155              	.LBE695:
 2156              	.LBE694:
 2157              	.LBE693:
 2158              	.LBE692:
 2159              	.LBE691:
 2160              	.LBE690:
 2161              	.LBE689:
 2162              	.LBE688:
 2163              	.LBE687:
 2164              	.LBB719:
 2165              	.LBB720:
 2166              	.LBB721:
 2167              	.LBB722:
 2168              	.LBB723:
 2169              		.file 13 "../libDaisy/src/per/i2c.h"
ARM GAS  /var/folders/1c/r153ml_17wn3q6lsykf2p9y00000gn/T//ccV3PK4F.s 			page 68


   1:../libDaisy/src/per/i2c.h **** #pragma once
   2:../libDaisy/src/per/i2c.h **** #include "daisy_core.h"
   3:../libDaisy/src/per/i2c.h **** 
   4:../libDaisy/src/per/i2c.h **** namespace daisy
   5:../libDaisy/src/per/i2c.h **** {
   6:../libDaisy/src/per/i2c.h **** /** A handle for interacting with an I2C peripheral. This is a dumb
   7:../libDaisy/src/per/i2c.h ****  *  gateway that internally points to one of the four I2C peripherals
   8:../libDaisy/src/per/i2c.h ****  *  after it was initialised. It can then be copied and passed around.
   9:../libDaisy/src/per/i2c.h ****  *  Use an I2CHandle like this:
  10:../libDaisy/src/per/i2c.h ****  *  
  11:../libDaisy/src/per/i2c.h ****  *      // setup the configuration
  12:../libDaisy/src/per/i2c.h ****  *      I2CHandle::Config i2c_conf;
  13:../libDaisy/src/per/i2c.h ****  *      i2c_conf.periph = I2CHandle::Config::Peripheral::I2C_1;
  14:../libDaisy/src/per/i2c.h ****  *      i2c_conf.speed  = I2CHandle::Config::Speed::I2C_400KHZ;
  15:../libDaisy/src/per/i2c.h ****  *      i2c_conf.mode   = I2CHandle::Config::Mode::Master;
  16:../libDaisy/src/per/i2c.h ****  *      i2c_conf.pin_config.scl  = {DSY_GPIOB, 8};
  17:../libDaisy/src/per/i2c.h ****  *      i2c_conf.pin_config.sda  = {DSY_GPIOB, 9};
  18:../libDaisy/src/per/i2c.h ****  *      // initialise the peripheral
  19:../libDaisy/src/per/i2c.h ****  *      I2CHandle i2c;
  20:../libDaisy/src/per/i2c.h ****  *      i2c.Init(i2c_conf);
  21:../libDaisy/src/per/i2c.h ****  *      // now i2c points to the corresponding peripheral and can be used.
  22:../libDaisy/src/per/i2c.h ****  *      i2c.TransmitBlocking( ... );
  23:../libDaisy/src/per/i2c.h ****  */
  24:../libDaisy/src/per/i2c.h **** class I2CHandle
  25:../libDaisy/src/per/i2c.h **** {
  26:../libDaisy/src/per/i2c.h ****   public:
  27:../libDaisy/src/per/i2c.h ****     /** Contains settings for initialising an I2C interface. */
  28:../libDaisy/src/per/i2c.h ****     struct Config
  29:../libDaisy/src/per/i2c.h ****     {
  30:../libDaisy/src/per/i2c.h ****         /** Specifies whether the interface will operate in master or slave mode. */
  31:../libDaisy/src/per/i2c.h ****         enum class Mode
  32:../libDaisy/src/per/i2c.h ****         {
  33:../libDaisy/src/per/i2c.h ****             I2C_MASTER,
  34:../libDaisy/src/per/i2c.h ****             I2C_SLAVE,
  35:../libDaisy/src/per/i2c.h ****         };
  36:../libDaisy/src/per/i2c.h **** 
  37:../libDaisy/src/per/i2c.h ****         /** Specifices the internal peripheral to use (these are mapped to different pins on the ha
  38:../libDaisy/src/per/i2c.h ****         enum class Peripheral
  39:../libDaisy/src/per/i2c.h ****         {
  40:../libDaisy/src/per/i2c.h ****             I2C_1 = 0, /**< & */
  41:../libDaisy/src/per/i2c.h ****             I2C_2,     /**< & */
  42:../libDaisy/src/per/i2c.h ****             I2C_3,     /**< & */
  43:../libDaisy/src/per/i2c.h ****             I2C_4,     /**< & */
  44:../libDaisy/src/per/i2c.h ****         };
  45:../libDaisy/src/per/i2c.h **** 
  46:../libDaisy/src/per/i2c.h ****         /** Rate at which the clock/data will be sent/received. The device being used will have max
  47:../libDaisy/src/per/i2c.h ****          *  1MHZ Mode is currently 886kHz
  48:../libDaisy/src/per/i2c.h ****          */
  49:../libDaisy/src/per/i2c.h ****         enum class Speed
  50:../libDaisy/src/per/i2c.h ****         {
  51:../libDaisy/src/per/i2c.h ****             I2C_100KHZ, /**< & */
  52:../libDaisy/src/per/i2c.h ****             I2C_400KHZ, /**< & */
  53:../libDaisy/src/per/i2c.h ****             I2C_1MHZ,   /**< & */
  54:../libDaisy/src/per/i2c.h ****         };
  55:../libDaisy/src/per/i2c.h **** 
  56:../libDaisy/src/per/i2c.h ****         Peripheral periph; /**< & */
  57:../libDaisy/src/per/i2c.h ****         struct
ARM GAS  /var/folders/1c/r153ml_17wn3q6lsykf2p9y00000gn/T//ccV3PK4F.s 			page 69


  58:../libDaisy/src/per/i2c.h ****         {
  59:../libDaisy/src/per/i2c.h ****             dsy_gpio_pin scl; /**< & */
  60:../libDaisy/src/per/i2c.h ****             dsy_gpio_pin sda; /**< & */
  61:../libDaisy/src/per/i2c.h ****         } pin_config;         /**< & */
  62:../libDaisy/src/per/i2c.h **** 
  63:../libDaisy/src/per/i2c.h ****         Speed speed; /**< & */
  64:../libDaisy/src/per/i2c.h ****         Mode  mode;  /**< & */
  65:../libDaisy/src/per/i2c.h ****         // 0x10 is chosen as a default to avoid conflicts with reserved addresses
  66:../libDaisy/src/per/i2c.h ****         uint8_t address = 0x10; /**< & */
  67:../libDaisy/src/per/i2c.h ****     };
  68:../libDaisy/src/per/i2c.h **** 
  69:../libDaisy/src/per/i2c.h ****     /** Return values for I2C functions. */
  70:../libDaisy/src/per/i2c.h ****     enum class Result
  71:../libDaisy/src/per/i2c.h ****     {
  72:../libDaisy/src/per/i2c.h ****         OK, /**< & */
  73:../libDaisy/src/per/i2c.h ****         ERR /**< & */
  74:../libDaisy/src/per/i2c.h ****     };
  75:../libDaisy/src/per/i2c.h **** 
  76:../libDaisy/src/per/i2c.h ****     enum class Direction
  77:../libDaisy/src/per/i2c.h ****     {
  78:../libDaisy/src/per/i2c.h ****         TRANSMIT, /**< & */
  79:../libDaisy/src/per/i2c.h ****         RECEIVE,  /**< & */
  80:../libDaisy/src/per/i2c.h ****     };
  81:../libDaisy/src/per/i2c.h **** 
  82:../libDaisy/src/per/i2c.h ****     I2CHandle() : pimpl_(nullptr) {}
 2170              		.loc 13 82 19 view .LVU544
 2171 0008 1A62     		str	r2, [r3, #32]
 2172              	.LBE723:
 2173              	.LBE722:
 2174              	.LBE721:
 2175              	.LBE720:
 2176              	.LBE719:
 2177              	.LBB726:
 2178              	.LBB727:
 2179              	.LBB728:
 2180              		.file 14 "../libDaisy/src/per/dac.h"
   1:../libDaisy/src/per/dac.h **** #pragma once
   2:../libDaisy/src/per/dac.h **** #ifndef DSY_DAC_H
   3:../libDaisy/src/per/dac.h **** #define DSY_DAC_H
   4:../libDaisy/src/per/dac.h **** 
   5:../libDaisy/src/per/dac.h **** #include "daisy_core.h"
   6:../libDaisy/src/per/dac.h **** 
   7:../libDaisy/src/per/dac.h **** namespace daisy
   8:../libDaisy/src/per/dac.h **** {
   9:../libDaisy/src/per/dac.h **** /** @brief DAC handle for Built-in DAC Peripheral 
  10:../libDaisy/src/per/dac.h ****  *  @ingroup per_analog
  11:../libDaisy/src/per/dac.h ****  ** 
  12:../libDaisy/src/per/dac.h ****  ** For now only Normal Mode is supported,
  13:../libDaisy/src/per/dac.h ****  ** Sample and hold mode provides reduced power consumption, but requires a bit more setup.
  14:../libDaisy/src/per/dac.h ****  **
  15:../libDaisy/src/per/dac.h ****  ** For now connecting the DAC through other internal peripherals is also not supported.
  16:../libDaisy/src/per/dac.h ****  **
  17:../libDaisy/src/per/dac.h ****  ** Since the DAC channels have dedicated pins we don't need to pass in a pin config like with
  18:../libDaisy/src/per/dac.h ****  ** other modules. However, it is still important to not try to use the DAC pins for anything else.
  19:../libDaisy/src/per/dac.h ****  ** DAC Channel 1 is on PA4, and DAC Channel 2 is on PA5
  20:../libDaisy/src/per/dac.h ****  ***/
  21:../libDaisy/src/per/dac.h **** class DacHandle
ARM GAS  /var/folders/1c/r153ml_17wn3q6lsykf2p9y00000gn/T//ccV3PK4F.s 			page 70


  22:../libDaisy/src/per/dac.h **** {
  23:../libDaisy/src/per/dac.h ****   public:
  24:../libDaisy/src/per/dac.h ****     /** Return Values for the DacHandle class */
  25:../libDaisy/src/per/dac.h ****     enum class Result
  26:../libDaisy/src/per/dac.h ****     {
  27:../libDaisy/src/per/dac.h ****         OK,
  28:../libDaisy/src/per/dac.h ****         ERR,
  29:../libDaisy/src/per/dac.h ****     };
  30:../libDaisy/src/per/dac.h **** 
  31:../libDaisy/src/per/dac.h ****     /** Selects which channel(s) will be configured for use. */
  32:../libDaisy/src/per/dac.h ****     enum class Channel
  33:../libDaisy/src/per/dac.h ****     {
  34:../libDaisy/src/per/dac.h ****         ONE,
  35:../libDaisy/src/per/dac.h ****         TWO,
  36:../libDaisy/src/per/dac.h ****         BOTH,
  37:../libDaisy/src/per/dac.h ****     };
  38:../libDaisy/src/per/dac.h **** 
  39:../libDaisy/src/per/dac.h ****     /** Sets the Mode for the DAC channels.
  40:../libDaisy/src/per/dac.h ****      **
  41:../libDaisy/src/per/dac.h ****      ** Polling mode uses the blocking mode to transmit a single value at a time.
  42:../libDaisy/src/per/dac.h ****      **
  43:../libDaisy/src/per/dac.h ****      ** DMA mode uses a buffer, and periodically transmits it triggering a 
  44:../libDaisy/src/per/dac.h ****      ** callback to fill the buffer when it is ready for more samples.
  45:../libDaisy/src/per/dac.h ****      ***/
  46:../libDaisy/src/per/dac.h ****     enum class Mode
  47:../libDaisy/src/per/dac.h ****     {
  48:../libDaisy/src/per/dac.h ****         POLLING,
  49:../libDaisy/src/per/dac.h ****         DMA,
  50:../libDaisy/src/per/dac.h ****     };
  51:../libDaisy/src/per/dac.h **** 
  52:../libDaisy/src/per/dac.h ****     /** Sets the number of bits per sample transmitted out of the DAC.
  53:../libDaisy/src/per/dac.h ****      ** The output range will be: 0V - VDDA
  54:../libDaisy/src/per/dac.h ****      ** The resolution will be roughly: bitdepth / (VDDA - 0V) 
  55:../libDaisy/src/per/dac.h ****      ***/
  56:../libDaisy/src/per/dac.h ****     enum class BitDepth
  57:../libDaisy/src/per/dac.h ****     {
  58:../libDaisy/src/per/dac.h ****         BITS_8,
  59:../libDaisy/src/per/dac.h ****         BITS_12
  60:../libDaisy/src/per/dac.h ****     };
  61:../libDaisy/src/per/dac.h **** 
  62:../libDaisy/src/per/dac.h ****     /** Sets whether the DAC output is buffered for higher drive ability. */
  63:../libDaisy/src/per/dac.h ****     enum class BufferState
  64:../libDaisy/src/per/dac.h ****     {
  65:../libDaisy/src/per/dac.h ****         ENABLED,
  66:../libDaisy/src/per/dac.h ****         DISABLED,
  67:../libDaisy/src/per/dac.h ****     };
  68:../libDaisy/src/per/dac.h **** 
  69:../libDaisy/src/per/dac.h ****     /** Configuration structure for initializing the DAC structure. */
  70:../libDaisy/src/per/dac.h ****     struct Config
  71:../libDaisy/src/per/dac.h ****     {
  72:../libDaisy/src/per/dac.h ****         /** Target Samplerate in Hz used to configure the internal 
  73:../libDaisy/src/per/dac.h ****          ** timebase for DMA mode. Does nothing in POLLING mode.
  74:../libDaisy/src/per/dac.h ****          ** If the value is 0 at Init time this will default to 48000Hz 
  75:../libDaisy/src/per/dac.h ****          ** otherwise the driver will attempt meet the target.*/
  76:../libDaisy/src/per/dac.h ****         uint32_t target_samplerate;
  77:../libDaisy/src/per/dac.h **** 
  78:../libDaisy/src/per/dac.h ****         Channel     chn;
ARM GAS  /var/folders/1c/r153ml_17wn3q6lsykf2p9y00000gn/T//ccV3PK4F.s 			page 71


  79:../libDaisy/src/per/dac.h ****         Mode        mode;
  80:../libDaisy/src/per/dac.h ****         BitDepth    bitdepth;
  81:../libDaisy/src/per/dac.h ****         BufferState buff_state;
  82:../libDaisy/src/per/dac.h ****     };
  83:../libDaisy/src/per/dac.h **** 
  84:../libDaisy/src/per/dac.h ****     DacHandle() : pimpl_(nullptr) {}
 2181              		.loc 14 84 19 view .LVU545
 2182 000a 9A62     		str	r2, [r3, #40]
 2183              	.LBE728:
 2184              	.LBE727:
 2185              	.LBE726:
 2186              	.LBB729:
 2187              	.LBB716:
 2188              	.LBB713:
 2189              	.LBB710:
 2190              	.LBB707:
 2191              	.LBB704:
 2192              	.LBB701:
 2193              	.LBB699:
 2194              	.LBB698:
 2195              	.LBB697:
 2196              		.loc 12 272 23 view .LVU546
 2197 000c A3F8B011 		strh	r1, [r3, #432]	@ movhi
 2198              	.LBE697:
 2199              	.LBE698:
 2200              	.LBE699:
 2201              		.file 15 "../libDaisy/src/per/gpio.h"
   1:../libDaisy/src/per/gpio.h **** #pragma once
   2:../libDaisy/src/per/gpio.h **** #ifndef DSY_GPIO_H
   3:../libDaisy/src/per/gpio.h **** #define DSY_GPIO_H
   4:../libDaisy/src/per/gpio.h **** #include "daisy_core.h"
   5:../libDaisy/src/per/gpio.h **** 
   6:../libDaisy/src/per/gpio.h **** #ifdef __cplusplus
   7:../libDaisy/src/per/gpio.h **** 
   8:../libDaisy/src/per/gpio.h **** namespace daisy
   9:../libDaisy/src/per/gpio.h **** {
  10:../libDaisy/src/per/gpio.h **** /** @brief General Purpose I/O control 
  11:../libDaisy/src/per/gpio.h ****  *  @details peripheral control over a single GPIO
  12:../libDaisy/src/per/gpio.h ****  *  @ingroup peripheral
  13:../libDaisy/src/per/gpio.h ****  *   
  14:../libDaisy/src/per/gpio.h ****  *  Button Input (with internal Pullup resistor)
  15:../libDaisy/src/per/gpio.h ****  *  @include GPIO_Input.cpp 
  16:../libDaisy/src/per/gpio.h ****  * 
  17:../libDaisy/src/per/gpio.h ****  *  Output Example (perfect for blinking an LED)
  18:../libDaisy/src/per/gpio.h ****  *  @include GPIO_Output.cpp
  19:../libDaisy/src/per/gpio.h ****  * 
  20:../libDaisy/src/per/gpio.h **** */
  21:../libDaisy/src/per/gpio.h **** class GPIO
  22:../libDaisy/src/per/gpio.h **** {
  23:../libDaisy/src/per/gpio.h ****   public:
  24:../libDaisy/src/per/gpio.h ****     /** @brief Mode of operation for the specified GPIO */
  25:../libDaisy/src/per/gpio.h ****     enum class Mode
  26:../libDaisy/src/per/gpio.h ****     {
  27:../libDaisy/src/per/gpio.h ****         INPUT,     /**< Input for reading state of pin */
  28:../libDaisy/src/per/gpio.h ****         OUTPUT,    /**< Output w/ push-pull configuration */
  29:../libDaisy/src/per/gpio.h ****         OUTPUT_OD, /**< Output w/ open-drain configuration */
  30:../libDaisy/src/per/gpio.h ****         ANALOG,    /**< Analog for connection to ADC or DAC peripheral */
ARM GAS  /var/folders/1c/r153ml_17wn3q6lsykf2p9y00000gn/T//ccV3PK4F.s 			page 72


  31:../libDaisy/src/per/gpio.h ****     };
  32:../libDaisy/src/per/gpio.h **** 
  33:../libDaisy/src/per/gpio.h ****     /** @brief Configures whether an internal Pull up or Pull down resistor is used. 
  34:../libDaisy/src/per/gpio.h ****      *  
  35:../libDaisy/src/per/gpio.h ****      * Internal Pull up/down resistors are typically 40k ohms, and will be between
  36:../libDaisy/src/per/gpio.h ****      * 30k and 50k
  37:../libDaisy/src/per/gpio.h ****      * 
  38:../libDaisy/src/per/gpio.h ****      * When the Pin is configured in Analog mode, the pull up/down resistors are
  39:../libDaisy/src/per/gpio.h ****      * disabled by hardware. 
  40:../libDaisy/src/per/gpio.h ****      */
  41:../libDaisy/src/per/gpio.h ****     enum class Pull
  42:../libDaisy/src/per/gpio.h ****     {
  43:../libDaisy/src/per/gpio.h ****         NOPULL,   /**< No pull up resistor */
  44:../libDaisy/src/per/gpio.h ****         PULLUP,   /**< Internal pull up enabled */
  45:../libDaisy/src/per/gpio.h ****         PULLDOWN, /**< Internal pull down enabled*/
  46:../libDaisy/src/per/gpio.h ****     };
  47:../libDaisy/src/per/gpio.h **** 
  48:../libDaisy/src/per/gpio.h ****     /** @brief Output speed controls the drive strength, and slew rate of the pin */
  49:../libDaisy/src/per/gpio.h ****     enum class Speed
  50:../libDaisy/src/per/gpio.h ****     {
  51:../libDaisy/src/per/gpio.h ****         LOW,
  52:../libDaisy/src/per/gpio.h ****         MEDIUM,
  53:../libDaisy/src/per/gpio.h ****         HIGH,
  54:../libDaisy/src/per/gpio.h ****         VERY_HIGH,
  55:../libDaisy/src/per/gpio.h ****     };
  56:../libDaisy/src/per/gpio.h **** 
  57:../libDaisy/src/per/gpio.h ****     /** @brief Configuration for a given GPIO */
  58:../libDaisy/src/per/gpio.h ****     struct Config
  59:../libDaisy/src/per/gpio.h ****     {
  60:../libDaisy/src/per/gpio.h ****         Pin   pin;
  61:../libDaisy/src/per/gpio.h ****         Mode  mode;
  62:../libDaisy/src/per/gpio.h ****         Pull  pull;
  63:../libDaisy/src/per/gpio.h ****         Speed speed;
  64:../libDaisy/src/per/gpio.h **** 
  65:../libDaisy/src/per/gpio.h ****         /** Constructor with no arguments will prepare an invalid GPIO set as
  66:../libDaisy/src/per/gpio.h ****          *  an input, with no pullup. 
  67:../libDaisy/src/per/gpio.h ****          */
  68:../libDaisy/src/per/gpio.h ****         Config()
  69:../libDaisy/src/per/gpio.h ****         : pin(), mode(Mode::INPUT), pull(Pull::NOPULL), speed(Speed::LOW)
 2202              		.loc 15 69 57 discriminator 1 view .LVU547
 2203 0010 C3F8BC21 		str	r2, [r3, #444]
 2204              	.LBE701:
 2205              	.LBE704:
 2206              	.LBE707:
 2207              	.LBE710:
 2208              	.LBE713:
 2209              	.LBE716:
 2210              	.LBE729:
 2211              	.LBB730:
 2212              	.LBB731:
 2213              	.LBB732:
 2214              	.LBB733:
 2215              	.LBB734:
 2216              	.LBB735:
 2217              	.LBB736:
 2218              	.LBB737:
 2219              	.LBB738:
ARM GAS  /var/folders/1c/r153ml_17wn3q6lsykf2p9y00000gn/T//ccV3PK4F.s 			page 73


 2220              	.LBB739:
 2221              		.loc 12 272 23 view .LVU548
 2222 0014 A3F8C811 		strh	r1, [r3, #456]	@ movhi
 2223              	.LBE739:
 2224              	.LBE738:
 2225              	.LBE737:
 2226              		.loc 15 69 57 discriminator 1 view .LVU549
 2227 0018 C3F8D421 		str	r2, [r3, #468]
 2228              	.LBE736:
 2229              	.LBE735:
 2230              	.LBE734:
 2231              	.LBE733:
 2232              	.LBE732:
 2233              	.LBE731:
 2234              	.LBE730:
 2235              	.LBB753:
 2236              	.LBB754:
 2237              	.LBB755:
  95:../libDaisy/src/hid/audio.h ****     ~AudioHandle() {}
 2238              		.loc 7 95 21 view .LVU550
 2239 001c C3E90322 		strd	r2, r2, [r3, #12]
 2240              	.LVL80:
  95:../libDaisy/src/hid/audio.h ****     ~AudioHandle() {}
 2241              		.loc 7 95 21 view .LVU551
 2242              	.LBE755:
 2243              	.LBE754:
 2244              	.LBE753:
 2245              	.LBB756:
 2246              	.LBI756:
 109:../libDaisy/src/per/adc.h ****     ~AdcHandle() {}
 2247              		.loc 6 109 5 is_stmt 1 view .LVU552
 109:../libDaisy/src/per/adc.h ****     ~AdcHandle() {}
 2248              		.loc 6 109 5 is_stmt 0 view .LVU553
 2249              	.LBE756:
 2250              	.LBB757:
 2251              	.LBI757:
  40:../libDaisy/src/hid/usb.h **** 
 2252              		.loc 5 40 5 is_stmt 1 view .LVU554
  40:../libDaisy/src/hid/usb.h **** 
 2253              		.loc 5 40 5 is_stmt 0 view .LVU555
 2254              	.LBE757:
 2255              	.LBB758:
 2256              	.LBI719:
  28:../libDaisy/src/dev/codec_pcm3060.h ****     ~Pcm3060() {}
 2257              		.loc 4 28 5 is_stmt 1 view .LVU556
 2258              	.LBB725:
 2259              	.LBB724:
 2260              	.LBI721:
 2261              		.loc 13 82 5 view .LVU557
 2262              		.loc 13 82 5 is_stmt 0 view .LVU558
 2263              	.LBE724:
 2264              	.LBE725:
 2265              	.LBE758:
 2266              	.LBB759:
 2267              	.LBI726:
 2268              		.loc 14 84 5 is_stmt 1 view .LVU559
 2269              		.loc 14 84 5 is_stmt 0 view .LVU560
ARM GAS  /var/folders/1c/r153ml_17wn3q6lsykf2p9y00000gn/T//ccV3PK4F.s 			page 74


 2270              	.LBE759:
 2271              	.LBB760:
 2272              	.LBI687:
  18:../libDaisy/src/hid/gatein.h **** 
 2273              		.loc 3 18 5 is_stmt 1 view .LVU561
 2274              	.LBB717:
 2275              	.LBB714:
 2276              	.LBI689:
  70:../libDaisy/src/per/gpio.h ****         {
  71:../libDaisy/src/per/gpio.h ****         }
  72:../libDaisy/src/per/gpio.h ****     };
  73:../libDaisy/src/per/gpio.h **** 
  74:../libDaisy/src/per/gpio.h ****     GPIO() {}
 2277              		.loc 15 74 5 view .LVU562
 2278              	.LBB711:
 2279              	.LBB708:
 2280              	.LBI691:
  68:../libDaisy/src/per/gpio.h ****         : pin(), mode(Mode::INPUT), pull(Pull::NOPULL), speed(Speed::LOW)
 2281              		.loc 15 68 9 view .LVU563
 2282              	.LBB705:
 2283              	.LBB702:
 2284              	.LBB700:
 2285              	.LBI694:
 2286              		.loc 12 272 15 view .LVU564
 2287              		.loc 12 272 15 is_stmt 0 view .LVU565
 2288              	.LBE700:
 2289              	.LBE702:
 2290              	.LBE705:
 2291              	.LBE708:
 2292              	.LBE711:
 2293              	.LBE714:
 2294              	.LBE717:
 2295              	.LBE760:
 2296              	.LBB761:
 2297              	.LBI730:
  18:../libDaisy/src/hid/gatein.h **** 
 2298              		.loc 3 18 5 is_stmt 1 view .LVU566
 2299              	.LBB751:
 2300              	.LBB749:
 2301              	.LBI732:
 2302              		.loc 15 74 5 view .LVU567
 2303              	.LBB747:
 2304              	.LBB745:
 2305              	.LBI734:
  68:../libDaisy/src/per/gpio.h ****         : pin(), mode(Mode::INPUT), pull(Pull::NOPULL), speed(Speed::LOW)
 2306              		.loc 15 68 9 view .LVU568
 2307              	.LBB743:
 2308              	.LBB741:
 2309              	.LBB740:
 2310              	.LBI737:
 2311              		.loc 12 272 15 view .LVU569
 2312              		.loc 12 272 15 is_stmt 0 view .LVU570
 2313              	.LBE740:
 2314              	.LBE741:
 2315              	.LBE743:
 2316              	.LBE745:
 2317              	.LBE747:
ARM GAS  /var/folders/1c/r153ml_17wn3q6lsykf2p9y00000gn/T//ccV3PK4F.s 			page 75


 2318              	.LBE749:
 2319              	.LBE751:
 2320              	.LBE761:
 2321              	.LBE682:
 2322              	.LBE681:
 2323              	.LBB765:
 2324              	.LBI765:
  37:../DaisySP/DaisySP-LGPL/Source/Effects/reverbsc.h ****     ~ReverbSc() {}
 2325              		.loc 9 37 5 is_stmt 1 view .LVU571
  37:../DaisySP/DaisySP-LGPL/Source/Effects/reverbsc.h ****     ~ReverbSc() {}
 2326              		.loc 9 37 5 is_stmt 0 view .LVU572
 2327              	.LBE765:
 2328              	.LBB766:
 2329              	.LBB764:
 2330              	.LBB762:
 2331              	.LBB718:
 2332              	.LBB715:
 2333              	.LBB712:
 2334              	.LBB709:
 2335              	.LBB706:
 2336              	.LBB703:
  69:../libDaisy/src/per/gpio.h ****         {
 2337              		.loc 15 69 37 discriminator 1 view .LVU573
 2338 0020 C3E96D22 		strd	r2, r2, [r3, #436]
 2339              	.LBE703:
 2340              	.LBE706:
 2341              	.LBE709:
 2342              	.LBE712:
 2343              	.LBE715:
 2344              	.LBE718:
 2345              	.LBE762:
 2346              	.LBB763:
 2347              	.LBB752:
 2348              	.LBB750:
 2349              	.LBB748:
 2350              	.LBB746:
 2351              	.LBB744:
 2352              	.LBB742:
 2353 0024 C3E97322 		strd	r2, r2, [r3, #460]
 2354              	.LBE742:
 2355              	.LBE744:
 2356              	.LBE746:
 2357              	.LBE748:
 2358              	.LBE750:
 2359              	.LBE752:
 2360              	.LBE763:
 2361              	.LBE764:
 2362              	.LBE766:
 2363              	.LBE680:
 2364              	.LBE679:
 2365              		.loc 1 201 1 view .LVU574
 2366 0028 7047     		bx	lr
 2367              	.L33:
 2368 002a 00BF     		.align	2
 2369              	.L32:
 2370 002c 00000000 		.word	hw
 2371              		.cfi_endproc
ARM GAS  /var/folders/1c/r153ml_17wn3q6lsykf2p9y00000gn/T//ccV3PK4F.s 			page 76


 2372              	.LFE5335:
 2374              		.section	.init_array,"aw",%init_array
 2375              		.align	2
 2376 0000 00000000 		.word	_GLOBAL__sub_I_hw(target1)
 2377              		.section	.bss._ZZ13AudioCallbackPKPKfPPfjE13ledBrightness,"aw",%nobits
 2378              		.align	2
 2381              	_ZZ13AudioCallbackPKPKfPPfjE13ledBrightness:
 2382 0000 00000000 		.space	4
 2383              		.global	ledVoltage
 2384              		.section	.bss.ledVoltage,"aw",%nobits
 2385              		.align	2
 2388              	ledVoltage:
 2389 0000 00000000 		.space	4
 2390              		.global	toneFilterStateR
 2391              		.section	.bss.toneFilterStateR,"aw",%nobits
 2392              		.align	2
 2395              	toneFilterStateR:
 2396 0000 00000000 		.space	4
 2397              		.global	toneFilterStateL
 2398              		.section	.bss.toneFilterStateL,"aw",%nobits
 2399              		.align	2
 2402              	toneFilterStateL:
 2403 0000 00000000 		.space	4
 2404              		.global	preDelayWrite
 2405              		.section	.bss.preDelayWrite,"aw",%nobits
 2406              		.align	2
 2409              	preDelayWrite:
 2410 0000 00000000 		.space	4
 2411              		.global	preDelayBufR
 2412              		.section	.bss.preDelayBufR,"aw",%nobits
 2413              		.align	2
 2416              	preDelayBufR:
 2417 0000 00000000 		.space	19200
 2417      00000000 
 2417      00000000 
 2417      00000000 
 2417      00000000 
 2418              		.global	preDelayBufL
 2419              		.section	.bss.preDelayBufL,"aw",%nobits
 2420              		.align	2
 2423              	preDelayBufL:
 2424 0000 00000000 		.space	19200
 2424      00000000 
 2424      00000000 
 2424      00000000 
 2424      00000000 
 2425              		.global	reverb
 2426              		.section	.bss.reverb,"aw",%nobits
 2427              		.align	2
 2430              	reverb:
 2431 0000 00000000 		.space	396100
 2431      00000000 
 2431      00000000 
 2431      00000000 
 2431      00000000 
 2432              		.global	hw
 2433              		.section	.bss.hw,"aw",%nobits
ARM GAS  /var/folders/1c/r153ml_17wn3q6lsykf2p9y00000gn/T//ccV3PK4F.s 			page 77


 2434              		.align	2
 2437              	hw:
 2438 0000 00000000 		.space	496
 2438      00000000 
 2438      00000000 
 2438      00000000 
 2438      00000000 
 2439              		.text
 2440              	.Letext0:
 2441              		.file 16 "/Applications/ArmGNUToolchain/15.2.rel1/arm-none-eabi/arm-none-eabi/include/machine/_def
 2442              		.file 17 "/Applications/ArmGNUToolchain/15.2.rel1/arm-none-eabi/arm-none-eabi/include/sys/_stdint.
 2443              		.file 18 "/Applications/ArmGNUToolchain/15.2.rel1/arm-none-eabi/arm-none-eabi/include/stdint.h"
 2444              		.file 19 "/Applications/ArmGNUToolchain/15.2.rel1/arm-none-eabi/lib/gcc/arm-none-eabi/15.2.1/inclu
 2445              		.file 20 "/Applications/ArmGNUToolchain/15.2.rel1/arm-none-eabi/arm-none-eabi/include/c++/15.2.1/c
 2446              		.file 21 "/Applications/ArmGNUToolchain/15.2.rel1/arm-none-eabi/arm-none-eabi/include/c++/15.2.1/b
 2447              		.file 22 "/Applications/ArmGNUToolchain/15.2.rel1/arm-none-eabi/arm-none-eabi/include/c++/15.2.1/c
 2448              		.file 23 "/Applications/ArmGNUToolchain/15.2.rel1/arm-none-eabi/arm-none-eabi/include/c++/15.2.1/c
 2449              		.file 24 "/Applications/ArmGNUToolchain/15.2.rel1/arm-none-eabi/arm-none-eabi/include/c++/15.2.1/t
 2450              		.file 25 "/Applications/ArmGNUToolchain/15.2.rel1/arm-none-eabi/arm-none-eabi/include/c++/15.2.1/b
 2451              		.file 26 "/Applications/ArmGNUToolchain/15.2.rel1/arm-none-eabi/arm-none-eabi/include/c++/15.2.1/b
 2452              		.file 27 "/Applications/ArmGNUToolchain/15.2.rel1/arm-none-eabi/arm-none-eabi/include/c++/15.2.1/d
 2453              		.file 28 "/Applications/ArmGNUToolchain/15.2.rel1/arm-none-eabi/arm-none-eabi/include/c++/15.2.1/c
 2454              		.file 29 "/Applications/ArmGNUToolchain/15.2.rel1/arm-none-eabi/arm-none-eabi/include/c++/15.2.1/c
 2455              		.file 30 "/Applications/ArmGNUToolchain/15.2.rel1/arm-none-eabi/arm-none-eabi/include/c++/15.2.1/c
 2456              		.file 31 "/Applications/ArmGNUToolchain/15.2.rel1/arm-none-eabi/arm-none-eabi/include/c++/15.2.1/c
 2457              		.file 32 "/Applications/ArmGNUToolchain/15.2.rel1/arm-none-eabi/arm-none-eabi/include/c++/15.2.1/c
 2458              		.file 33 "/Applications/ArmGNUToolchain/15.2.rel1/arm-none-eabi/arm-none-eabi/include/c++/15.2.1/b
 2459              		.file 34 "/Applications/ArmGNUToolchain/15.2.rel1/arm-none-eabi/arm-none-eabi/include/sys/_types.h
 2460              		.file 35 "/Applications/ArmGNUToolchain/15.2.rel1/arm-none-eabi/arm-none-eabi/include/sys/reent.h"
 2461              		.file 36 "/Applications/ArmGNUToolchain/15.2.rel1/arm-none-eabi/arm-none-eabi/include/sys/lock.h"
 2462              		.file 37 "/Applications/ArmGNUToolchain/15.2.rel1/arm-none-eabi/arm-none-eabi/include/math.h"
 2463              		.file 38 "/Applications/ArmGNUToolchain/15.2.rel1/arm-none-eabi/arm-none-eabi/include/stdlib.h"
 2464              		.file 39 "/Applications/ArmGNUToolchain/15.2.rel1/arm-none-eabi/arm-none-eabi/include/c++/15.2.1/m
 2465              		.file 40 "/Applications/ArmGNUToolchain/15.2.rel1/arm-none-eabi/arm-none-eabi/include/c++/15.2.1/s
 2466              		.file 41 "/Applications/ArmGNUToolchain/15.2.rel1/arm-none-eabi/arm-none-eabi/include/c++/15.2.1/a
 2467              		.file 42 "../libDaisy/src/per/sai.h"
 2468              		.file 43 "../libDaisy/src/hid/ctrl.h"
 2469              		.file 44 "../libDaisy/src/util/wav_format.h"
 2470              		.file 45 "../libDaisy/src/dev/max11300.h"
 2471              		.file 46 "../libDaisy/src/dev/sdram.h"
 2472              		.file 47 "/Applications/ArmGNUToolchain/15.2.rel1/arm-none-eabi/arm-none-eabi/include/c++/15.2.1/b
 2473              		.file 48 "/Applications/ArmGNUToolchain/15.2.rel1/arm-none-eabi/lib/gcc/arm-none-eabi/15.2.1/inclu
 2474              		.file 49 "/Applications/ArmGNUToolchain/15.2.rel1/arm-none-eabi/arm-none-eabi/include/stdio.h"
 2475              		.file 50 "/Applications/ArmGNUToolchain/15.2.rel1/arm-none-eabi/arm-none-eabi/include/string.h"
 2476              		.file 51 "../DaisySP/Source/Control/adenv.h"
 2477              		.file 52 "/Applications/ArmGNUToolchain/15.2.rel1/arm-none-eabi/arm-none-eabi/include/wchar.h"
 2478              		.file 53 "/Applications/ArmGNUToolchain/15.2.rel1/arm-none-eabi/arm-none-eabi/include/locale.h"
 2479              		.file 54 "../libDaisy/src/dev/sr_595.h"
 2480              		.file 55 "<built-in>"
ARM GAS  /var/folders/1c/r153ml_17wn3q6lsykf2p9y00000gn/T//ccV3PK4F.s 			page 78

